
haversine_processor:     file format elf64-x86-64


Disassembly of section .init:

0000000000004000 <_init>:
    4000:	f3 0f 1e fa          	endbr64
    4004:	48 83 ec 08          	sub    $0x8,%rsp
    4008:	48 8b 05 c9 4f 01 00 	mov    0x14fc9(%rip),%rax        # 18fd8 <__gmon_start__@Base>
    400f:	48 85 c0             	test   %rax,%rax
    4012:	74 02                	je     4016 <_init+0x16>
    4014:	ff d0                	call   *%rax
    4016:	48 83 c4 08          	add    $0x8,%rsp
    401a:	c3                   	ret

Disassembly of section .plt:

0000000000004020 <__asan_report_store4@plt-0x10>:
    4020:	ff 35 ca 4f 01 00    	push   0x14fca(%rip)        # 18ff0 <_GLOBAL_OFFSET_TABLE_+0x8>
    4026:	ff 25 cc 4f 01 00    	jmp    *0x14fcc(%rip)        # 18ff8 <_GLOBAL_OFFSET_TABLE_+0x10>
    402c:	0f 1f 40 00          	nopl   0x0(%rax)

0000000000004030 <__asan_report_store4@plt>:
    4030:	ff 25 ca 4f 01 00    	jmp    *0x14fca(%rip)        # 19000 <__asan_report_store4@Base>
    4036:	68 00 00 00 00       	push   $0x0
    403b:	e9 e0 ff ff ff       	jmp    4020 <_init+0x20>

0000000000004040 <__errno_location@plt>:
    4040:	ff 25 c2 4f 01 00    	jmp    *0x14fc2(%rip)        # 19008 <__errno_location@GLIBC_2.2.5>
    4046:	68 01 00 00 00       	push   $0x1
    404b:	e9 d0 ff ff ff       	jmp    4020 <_init+0x20>

0000000000004050 <printf@plt>:
    4050:	ff 25 ba 4f 01 00    	jmp    *0x14fba(%rip)        # 19010 <printf@Base>
    4056:	68 02 00 00 00       	push   $0x2
    405b:	e9 c0 ff ff ff       	jmp    4020 <_init+0x20>

0000000000004060 <__asan_register_globals@plt>:
    4060:	ff 25 b2 4f 01 00    	jmp    *0x14fb2(%rip)        # 19018 <__asan_register_globals@Base>
    4066:	68 03 00 00 00       	push   $0x3
    406b:	e9 b0 ff ff ff       	jmp    4020 <_init+0x20>

0000000000004070 <sin@plt>:
    4070:	ff 25 aa 4f 01 00    	jmp    *0x14faa(%rip)        # 19020 <sin@GLIBC_2.2.5>
    4076:	68 04 00 00 00       	push   $0x4
    407b:	e9 a0 ff ff ff       	jmp    4020 <_init+0x20>

0000000000004080 <free@plt>:
    4080:	ff 25 a2 4f 01 00    	jmp    *0x14fa2(%rip)        # 19028 <free@Base>
    4086:	68 05 00 00 00       	push   $0x5
    408b:	e9 90 ff ff ff       	jmp    4020 <_init+0x20>

0000000000004090 <__asan_report_load_n@plt>:
    4090:	ff 25 9a 4f 01 00    	jmp    *0x14f9a(%rip)        # 19030 <__asan_report_load_n@Base>
    4096:	68 06 00 00 00       	push   $0x6
    409b:	e9 80 ff ff ff       	jmp    4020 <_init+0x20>

00000000000040a0 <__asan_stack_malloc_0@plt>:
    40a0:	ff 25 92 4f 01 00    	jmp    *0x14f92(%rip)        # 19038 <__asan_stack_malloc_0@Base>
    40a6:	68 07 00 00 00       	push   $0x7
    40ab:	e9 70 ff ff ff       	jmp    4020 <_init+0x20>

00000000000040b0 <puts@plt>:
    40b0:	ff 25 8a 4f 01 00    	jmp    *0x14f8a(%rip)        # 19040 <puts@Base>
    40b6:	68 08 00 00 00       	push   $0x8
    40bb:	e9 60 ff ff ff       	jmp    4020 <_init+0x20>

00000000000040c0 <__asan_stack_malloc_9@plt>:
    40c0:	ff 25 82 4f 01 00    	jmp    *0x14f82(%rip)        # 19048 <__asan_stack_malloc_9@Base>
    40c6:	68 09 00 00 00       	push   $0x9
    40cb:	e9 50 ff ff ff       	jmp    4020 <_init+0x20>

00000000000040d0 <__asan_report_store16@plt>:
    40d0:	ff 25 7a 4f 01 00    	jmp    *0x14f7a(%rip)        # 19050 <__asan_report_store16@Base>
    40d6:	68 0a 00 00 00       	push   $0xa
    40db:	e9 40 ff ff ff       	jmp    4020 <_init+0x20>

00000000000040e0 <__asan_stack_malloc_1@plt>:
    40e0:	ff 25 72 4f 01 00    	jmp    *0x14f72(%rip)        # 19058 <__asan_stack_malloc_1@Base>
    40e6:	68 0b 00 00 00       	push   $0xb
    40eb:	e9 30 ff ff ff       	jmp    4020 <_init+0x20>

00000000000040f0 <__asan_report_load4@plt>:
    40f0:	ff 25 6a 4f 01 00    	jmp    *0x14f6a(%rip)        # 19060 <__asan_report_load4@Base>
    40f6:	68 0c 00 00 00       	push   $0xc
    40fb:	e9 20 ff ff ff       	jmp    4020 <_init+0x20>

0000000000004100 <__asan_stack_free_9@plt>:
    4100:	ff 25 62 4f 01 00    	jmp    *0x14f62(%rip)        # 19068 <__asan_stack_free_9@Base>
    4106:	68 0d 00 00 00       	push   $0xd
    410b:	e9 10 ff ff ff       	jmp    4020 <_init+0x20>

0000000000004110 <open@plt>:
    4110:	ff 25 5a 4f 01 00    	jmp    *0x14f5a(%rip)        # 19070 <open@GLIBC_2.2.5>
    4116:	68 0e 00 00 00       	push   $0xe
    411b:	e9 00 ff ff ff       	jmp    4020 <_init+0x20>

0000000000004120 <sqrt@plt>:
    4120:	ff 25 52 4f 01 00    	jmp    *0x14f52(%rip)        # 19078 <sqrt@GLIBC_2.2.5>
    4126:	68 0f 00 00 00       	push   $0xf
    412b:	e9 f0 fe ff ff       	jmp    4020 <_init+0x20>

0000000000004130 <read@plt>:
    4130:	ff 25 4a 4f 01 00    	jmp    *0x14f4a(%rip)        # 19080 <read@Base>
    4136:	68 10 00 00 00       	push   $0x10
    413b:	e9 e0 fe ff ff       	jmp    4020 <_init+0x20>

0000000000004140 <__asan_report_store8@plt>:
    4140:	ff 25 42 4f 01 00    	jmp    *0x14f42(%rip)        # 19088 <__asan_report_store8@Base>
    4146:	68 11 00 00 00       	push   $0x11
    414b:	e9 d0 fe ff ff       	jmp    4020 <_init+0x20>

0000000000004150 <__asan_unregister_globals@plt>:
    4150:	ff 25 3a 4f 01 00    	jmp    *0x14f3a(%rip)        # 19090 <__asan_unregister_globals@Base>
    4156:	68 12 00 00 00       	push   $0x12
    415b:	e9 c0 fe ff ff       	jmp    4020 <_init+0x20>

0000000000004160 <__stack_chk_fail@plt>:
    4160:	ff 25 32 4f 01 00    	jmp    *0x14f32(%rip)        # 19098 <__stack_chk_fail@GLIBC_2.4>
    4166:	68 13 00 00 00       	push   $0x13
    416b:	e9 b0 fe ff ff       	jmp    4020 <_init+0x20>

0000000000004170 <__asan_init@plt>:
    4170:	ff 25 2a 4f 01 00    	jmp    *0x14f2a(%rip)        # 190a0 <__asan_init@Base>
    4176:	68 14 00 00 00       	push   $0x14
    417b:	e9 a0 fe ff ff       	jmp    4020 <_init+0x20>

0000000000004180 <malloc@plt>:
    4180:	ff 25 22 4f 01 00    	jmp    *0x14f22(%rip)        # 190a8 <malloc@Base>
    4186:	68 15 00 00 00       	push   $0x15
    418b:	e9 90 fe ff ff       	jmp    4020 <_init+0x20>

0000000000004190 <__asan_report_load1@plt>:
    4190:	ff 25 1a 4f 01 00    	jmp    *0x14f1a(%rip)        # 190b0 <__asan_report_load1@Base>
    4196:	68 16 00 00 00       	push   $0x16
    419b:	e9 80 fe ff ff       	jmp    4020 <_init+0x20>

00000000000041a0 <__asan_report_load16@plt>:
    41a0:	ff 25 12 4f 01 00    	jmp    *0x14f12(%rip)        # 190b8 <__asan_report_load16@Base>
    41a6:	68 17 00 00 00       	push   $0x17
    41ab:	e9 70 fe ff ff       	jmp    4020 <_init+0x20>

00000000000041b0 <__asan_report_store1@plt>:
    41b0:	ff 25 0a 4f 01 00    	jmp    *0x14f0a(%rip)        # 190c0 <__asan_report_store1@Base>
    41b6:	68 18 00 00 00       	push   $0x18
    41bb:	e9 60 fe ff ff       	jmp    4020 <_init+0x20>

00000000000041c0 <__asan_report_load8@plt>:
    41c0:	ff 25 02 4f 01 00    	jmp    *0x14f02(%rip)        # 190c8 <__asan_report_load8@Base>
    41c6:	68 19 00 00 00       	push   $0x19
    41cb:	e9 50 fe ff ff       	jmp    4020 <_init+0x20>

00000000000041d0 <vsnprintf@plt>:
    41d0:	ff 25 fa 4e 01 00    	jmp    *0x14efa(%rip)        # 190d0 <vsnprintf@Base>
    41d6:	68 1a 00 00 00       	push   $0x1a
    41db:	e9 40 fe ff ff       	jmp    4020 <_init+0x20>

00000000000041e0 <gettimeofday@plt>:
    41e0:	ff 25 f2 4e 01 00    	jmp    *0x14ef2(%rip)        # 190d8 <gettimeofday@GLIBC_2.2.5>
    41e6:	68 1b 00 00 00       	push   $0x1b
    41eb:	e9 30 fe ff ff       	jmp    4020 <_init+0x20>

00000000000041f0 <stat@plt>:
    41f0:	ff 25 ea 4e 01 00    	jmp    *0x14eea(%rip)        # 190e0 <stat@Base>
    41f6:	68 1c 00 00 00       	push   $0x1c
    41fb:	e9 20 fe ff ff       	jmp    4020 <_init+0x20>

0000000000004200 <asin@plt>:
    4200:	ff 25 e2 4e 01 00    	jmp    *0x14ee2(%rip)        # 190e8 <asin@GLIBC_2.2.5>
    4206:	68 1d 00 00 00       	push   $0x1d
    420b:	e9 10 fe ff ff       	jmp    4020 <_init+0x20>

0000000000004210 <realloc@plt>:
    4210:	ff 25 da 4e 01 00    	jmp    *0x14eda(%rip)        # 190f0 <realloc@Base>
    4216:	68 1e 00 00 00       	push   $0x1e
    421b:	e9 00 fe ff ff       	jmp    4020 <_init+0x20>

0000000000004220 <__asan_version_mismatch_check_v8@plt>:
    4220:	ff 25 d2 4e 01 00    	jmp    *0x14ed2(%rip)        # 190f8 <__asan_version_mismatch_check_v8@Base>
    4226:	68 1f 00 00 00       	push   $0x1f
    422b:	e9 f0 fd ff ff       	jmp    4020 <_init+0x20>

0000000000004230 <cos@plt>:
    4230:	ff 25 ca 4e 01 00    	jmp    *0x14eca(%rip)        # 19100 <cos@GLIBC_2.2.5>
    4236:	68 20 00 00 00       	push   $0x20
    423b:	e9 e0 fd ff ff       	jmp    4020 <_init+0x20>

0000000000004240 <__asan_stack_malloc_3@plt>:
    4240:	ff 25 c2 4e 01 00    	jmp    *0x14ec2(%rip)        # 19108 <__asan_stack_malloc_3@Base>
    4246:	68 21 00 00 00       	push   $0x21
    424b:	e9 d0 fd ff ff       	jmp    4020 <_init+0x20>

Disassembly of section .text:

0000000000004250 <_start>:
    4250:	f3 0f 1e fa          	endbr64
    4254:	31 ed                	xor    %ebp,%ebp
    4256:	49 89 d1             	mov    %rdx,%r9
    4259:	5e                   	pop    %rsi
    425a:	48 89 e2             	mov    %rsp,%rdx
    425d:	48 83 e4 f0          	and    $0xfffffffffffffff0,%rsp
    4261:	50                   	push   %rax
    4262:	54                   	push   %rsp
    4263:	45 31 c0             	xor    %r8d,%r8d
    4266:	31 c9                	xor    %ecx,%ecx
    4268:	48 8d 3d b2 de 00 00 	lea    0xdeb2(%rip),%rdi        # 12121 <main>
    426f:	ff 15 53 4d 01 00    	call   *0x14d53(%rip)        # 18fc8 <__libc_start_main@GLIBC_2.34>
    4275:	f4                   	hlt
    4276:	66 2e 0f 1f 84 00 00 	cs nopw 0x0(%rax,%rax,1)
    427d:	00 00 00 
    4280:	48 8d 3d d9 6f 01 00 	lea    0x16fd9(%rip),%rdi        # 1b260 <__asan_option_detect_stack_use_after_return@@Base>
    4287:	48 8d 05 d2 6f 01 00 	lea    0x16fd2(%rip),%rax        # 1b260 <__asan_option_detect_stack_use_after_return@@Base>
    428e:	48 39 f8             	cmp    %rdi,%rax
    4291:	74 15                	je     42a8 <_start+0x58>
    4293:	48 8b 05 36 4d 01 00 	mov    0x14d36(%rip),%rax        # 18fd0 <_ITM_deregisterTMCloneTable@Base>
    429a:	48 85 c0             	test   %rax,%rax
    429d:	74 09                	je     42a8 <_start+0x58>
    429f:	ff e0                	jmp    *%rax
    42a1:	0f 1f 80 00 00 00 00 	nopl   0x0(%rax)
    42a8:	c3                   	ret
    42a9:	0f 1f 80 00 00 00 00 	nopl   0x0(%rax)
    42b0:	48 8d 3d a9 6f 01 00 	lea    0x16fa9(%rip),%rdi        # 1b260 <__asan_option_detect_stack_use_after_return@@Base>
    42b7:	48 8d 35 a2 6f 01 00 	lea    0x16fa2(%rip),%rsi        # 1b260 <__asan_option_detect_stack_use_after_return@@Base>
    42be:	48 29 fe             	sub    %rdi,%rsi
    42c1:	48 89 f0             	mov    %rsi,%rax
    42c4:	48 c1 ee 3f          	shr    $0x3f,%rsi
    42c8:	48 c1 f8 03          	sar    $0x3,%rax
    42cc:	48 01 c6             	add    %rax,%rsi
    42cf:	48 d1 fe             	sar    $1,%rsi
    42d2:	74 14                	je     42e8 <_start+0x98>
    42d4:	48 8b 05 05 4d 01 00 	mov    0x14d05(%rip),%rax        # 18fe0 <_ITM_registerTMCloneTable@Base>
    42db:	48 85 c0             	test   %rax,%rax
    42de:	74 08                	je     42e8 <_start+0x98>
    42e0:	ff e0                	jmp    *%rax
    42e2:	66 0f 1f 44 00 00    	nopw   0x0(%rax,%rax,1)
    42e8:	c3                   	ret
    42e9:	0f 1f 80 00 00 00 00 	nopl   0x0(%rax)
    42f0:	f3 0f 1e fa          	endbr64
    42f4:	80 3d 69 6f 01 00 00 	cmpb   $0x0,0x16f69(%rip)        # 1b264 <__asan_option_detect_stack_use_after_return+0x4>
    42fb:	75 33                	jne    4330 <_start+0xe0>
    42fd:	55                   	push   %rbp
    42fe:	48 83 3d ba 4c 01 00 	cmpq   $0x0,0x14cba(%rip)        # 18fc0 <__cxa_finalize@GLIBC_2.2.5>
    4305:	00 
    4306:	48 89 e5             	mov    %rsp,%rbp
    4309:	74 0d                	je     4318 <_start+0xc8>
    430b:	48 8b 3d 16 4e 01 00 	mov    0x14e16(%rip),%rdi        # 19128 <__dso_handle>
    4312:	ff 15 a8 4c 01 00    	call   *0x14ca8(%rip)        # 18fc0 <__cxa_finalize@GLIBC_2.2.5>
    4318:	e8 63 ff ff ff       	call   4280 <_start+0x30>
    431d:	c6 05 40 6f 01 00 01 	movb   $0x1,0x16f40(%rip)        # 1b264 <__asan_option_detect_stack_use_after_return+0x4>
    4324:	5d                   	pop    %rbp
    4325:	c3                   	ret
    4326:	66 2e 0f 1f 84 00 00 	cs nopw 0x0(%rax,%rax,1)
    432d:	00 00 00 
    4330:	c3                   	ret
    4331:	0f 1f 40 00          	nopl   0x0(%rax)
    4335:	66 66 2e 0f 1f 84 00 	data16 cs nopw 0x0(%rax,%rax,1)
    433c:	00 00 00 00 
    4340:	f3 0f 1e fa          	endbr64
    4344:	e9 67 ff ff ff       	jmp    42b0 <_start+0x60>

0000000000004349 <jstring_log_stub>:
    4349:	55                   	push   %rbp
    434a:	48 89 e5             	mov    %rsp,%rbp
    434d:	48 83 ec 48          	sub    $0x48,%rsp
    4351:	48 89 bd 48 ff ff ff 	mov    %rdi,-0xb8(%rbp)
    4358:	48 89 b5 58 ff ff ff 	mov    %rsi,-0xa8(%rbp)
    435f:	48 89 95 60 ff ff ff 	mov    %rdx,-0xa0(%rbp)
    4366:	48 89 8d 68 ff ff ff 	mov    %rcx,-0x98(%rbp)
    436d:	4c 89 85 70 ff ff ff 	mov    %r8,-0x90(%rbp)
    4374:	4c 89 8d 78 ff ff ff 	mov    %r9,-0x88(%rbp)
    437b:	84 c0                	test   %al,%al
    437d:	74 20                	je     439f <jstring_log_stub+0x56>
    437f:	0f 29 45 80          	movaps %xmm0,-0x80(%rbp)
    4383:	0f 29 4d 90          	movaps %xmm1,-0x70(%rbp)
    4387:	0f 29 55 a0          	movaps %xmm2,-0x60(%rbp)
    438b:	0f 29 5d b0          	movaps %xmm3,-0x50(%rbp)
    438f:	0f 29 65 c0          	movaps %xmm4,-0x40(%rbp)
    4393:	0f 29 6d d0          	movaps %xmm5,-0x30(%rbp)
    4397:	0f 29 75 e0          	movaps %xmm6,-0x20(%rbp)
    439b:	0f 29 7d f0          	movaps %xmm7,-0x10(%rbp)
    439f:	90                   	nop
    43a0:	c9                   	leave
    43a1:	c3                   	ret

00000000000043a2 <jstring_memory_activate>:
    43a2:	55                   	push   %rbp
    43a3:	48 89 e5             	mov    %rsp,%rbp
    43a6:	48 83 ec 10          	sub    $0x10,%rsp
    43aa:	48 89 7d f8          	mov    %rdi,-0x8(%rbp)
    43ae:	48 89 75 f0          	mov    %rsi,-0x10(%rbp)
    43b2:	8b 05 e0 6e 01 00    	mov    0x16ee0(%rip),%eax        # 1b298 <jstring_temporary_memory_info+0x18>
    43b8:	85 c0                	test   %eax,%eax
    43ba:	74 1f                	je     43db <jstring_memory_activate+0x39>
    43bc:	48 8b 15 7d 4d 01 00 	mov    0x14d7d(%rip),%rdx        # 19140 <jstring_log>
    43c3:	48 8d 05 56 ec 00 00 	lea    0xec56(%rip),%rax        # 13020 <_IO_stdin_used+0x20>
    43ca:	48 89 c7             	mov    %rax,%rdi
    43cd:	b8 00 00 00 00       	mov    $0x0,%eax
    43d2:	ff d2                	call   *%rdx
    43d4:	b8 00 00 00 00       	mov    $0x0,%eax
    43d9:	eb 30                	jmp    440b <jstring_memory_activate+0x69>
    43db:	48 8b 45 f8          	mov    -0x8(%rbp),%rax
    43df:	48 89 05 9a 6e 01 00 	mov    %rax,0x16e9a(%rip)        # 1b280 <jstring_temporary_memory_info>
    43e6:	48 c7 05 97 6e 01 00 	movq   $0x0,0x16e97(%rip)        # 1b288 <jstring_temporary_memory_info+0x8>
    43ed:	00 00 00 00 
    43f1:	48 8b 45 f0          	mov    -0x10(%rbp),%rax
    43f5:	48 89 05 94 6e 01 00 	mov    %rax,0x16e94(%rip)        # 1b290 <jstring_temporary_memory_info+0x10>
    43fc:	c7 05 92 6e 01 00 01 	movl   $0x1,0x16e92(%rip)        # 1b298 <jstring_temporary_memory_info+0x18>
    4403:	00 00 00 
    4406:	b8 01 00 00 00       	mov    $0x1,%eax
    440b:	c9                   	leave
    440c:	c3                   	ret

000000000000440d <jstring_memory_reset>:
    440d:	55                   	push   %rbp
    440e:	48 89 e5             	mov    %rsp,%rbp
    4411:	48 83 ec 10          	sub    $0x10,%rsp
    4415:	48 89 7d f8          	mov    %rdi,-0x8(%rbp)
    4419:	48 89 75 f0          	mov    %rsi,-0x10(%rbp)
    441d:	8b 05 75 6e 01 00    	mov    0x16e75(%rip),%eax        # 1b298 <jstring_temporary_memory_info+0x18>
    4423:	85 c0                	test   %eax,%eax
    4425:	75 1f                	jne    4446 <jstring_memory_reset+0x39>
    4427:	48 8b 15 12 4d 01 00 	mov    0x14d12(%rip),%rdx        # 19140 <jstring_log>
    442e:	48 8d 05 6b ec 00 00 	lea    0xec6b(%rip),%rax        # 130a0 <_IO_stdin_used+0xa0>
    4435:	48 89 c7             	mov    %rax,%rdi
    4438:	b8 00 00 00 00       	mov    $0x0,%eax
    443d:	ff d2                	call   *%rdx
    443f:	b8 00 00 00 00       	mov    $0x0,%eax
    4444:	eb 67                	jmp    44ad <jstring_memory_reset+0xa0>
    4446:	48 83 7d f8 00       	cmpq   $0x0,-0x8(%rbp)
    444b:	75 14                	jne    4461 <jstring_memory_reset+0x54>
    444d:	48 83 7d f0 00       	cmpq   $0x0,-0x10(%rbp)
    4452:	75 0d                	jne    4461 <jstring_memory_reset+0x54>
    4454:	48 c7 05 29 6e 01 00 	movq   $0x0,0x16e29(%rip)        # 1b288 <jstring_temporary_memory_info+0x8>
    445b:	00 00 00 00 
    445f:	eb 21                	jmp    4482 <jstring_memory_reset+0x75>
    4461:	48 8b 45 f8          	mov    -0x8(%rbp),%rax
    4465:	48 89 05 14 6e 01 00 	mov    %rax,0x16e14(%rip)        # 1b280 <jstring_temporary_memory_info>
    446c:	48 c7 05 11 6e 01 00 	movq   $0x0,0x16e11(%rip)        # 1b288 <jstring_temporary_memory_info+0x8>
    4473:	00 00 00 00 
    4477:	48 8b 45 f0          	mov    -0x10(%rbp),%rax
    447b:	48 89 05 0e 6e 01 00 	mov    %rax,0x16e0e(%rip)        # 1b290 <jstring_temporary_memory_info+0x10>
    4482:	48 8b 0d b7 4c 01 00 	mov    0x14cb7(%rip),%rcx        # 19140 <jstring_log>
    4489:	48 8b 15 00 6e 01 00 	mov    0x16e00(%rip),%rdx        # 1b290 <jstring_temporary_memory_info+0x10>
    4490:	48 8b 05 e9 6d 01 00 	mov    0x16de9(%rip),%rax        # 1b280 <jstring_temporary_memory_info>
    4497:	48 8d 3d a2 ec 00 00 	lea    0xeca2(%rip),%rdi        # 13140 <_IO_stdin_used+0x140>
    449e:	48 89 c6             	mov    %rax,%rsi
    44a1:	b8 00 00 00 00       	mov    $0x0,%eax
    44a6:	ff d1                	call   *%rcx
    44a8:	b8 01 00 00 00       	mov    $0x1,%eax
    44ad:	c9                   	leave
    44ae:	c3                   	ret

00000000000044af <jstring_load_logging_function>:
    44af:	55                   	push   %rbp
    44b0:	48 89 e5             	mov    %rsp,%rbp
    44b3:	48 89 7d f8          	mov    %rdi,-0x8(%rbp)
    44b7:	48 83 7d f8 00       	cmpq   $0x0,-0x8(%rbp)
    44bc:	75 07                	jne    44c5 <jstring_load_logging_function+0x16>
    44be:	b8 00 00 00 00       	mov    $0x0,%eax
    44c3:	eb 10                	jmp    44d5 <jstring_load_logging_function+0x26>
    44c5:	48 8b 45 f8          	mov    -0x8(%rbp),%rax
    44c9:	48 89 05 70 4c 01 00 	mov    %rax,0x14c70(%rip)        # 19140 <jstring_log>
    44d0:	b8 01 00 00 00       	mov    $0x1,%eax
    44d5:	5d                   	pop    %rbp
    44d6:	c3                   	ret

00000000000044d7 <jstring_temporary_memory_allocate_string>:
    44d7:	55                   	push   %rbp
    44d8:	48 89 e5             	mov    %rsp,%rbp
    44db:	48 83 ec 20          	sub    $0x20,%rsp
    44df:	48 89 7d e8          	mov    %rdi,-0x18(%rbp)
    44e3:	8b 05 af 6d 01 00    	mov    0x16daf(%rip),%eax        # 1b298 <jstring_temporary_memory_info+0x18>
    44e9:	85 c0                	test   %eax,%eax
    44eb:	75 1f                	jne    450c <jstring_temporary_memory_allocate_string+0x35>
    44ed:	48 8b 15 4c 4c 01 00 	mov    0x14c4c(%rip),%rdx        # 19140 <jstring_log>
    44f4:	48 8d 05 a5 ec 00 00 	lea    0xeca5(%rip),%rax        # 131a0 <_IO_stdin_used+0x1a0>
    44fb:	48 89 c7             	mov    %rax,%rdi
    44fe:	b8 00 00 00 00       	mov    $0x0,%eax
    4503:	ff d2                	call   *%rdx
    4505:	b8 00 00 00 00       	mov    $0x0,%eax
    450a:	eb 7a                	jmp    4586 <jstring_temporary_memory_allocate_string+0xaf>
    450c:	48 8b 15 75 6d 01 00 	mov    0x16d75(%rip),%rdx        # 1b288 <jstring_temporary_memory_info+0x8>
    4513:	48 8b 45 e8          	mov    -0x18(%rbp),%rax
    4517:	48 01 d0             	add    %rdx,%rax
    451a:	48 8b 15 5f 6d 01 00 	mov    0x16d5f(%rip),%rdx        # 1b280 <jstring_temporary_memory_info>
    4521:	48 39 c2             	cmp    %rax,%rdx
    4524:	73 32                	jae    4558 <jstring_temporary_memory_allocate_string+0x81>
    4526:	4c 8b 05 13 4c 01 00 	mov    0x14c13(%rip),%r8        # 19140 <jstring_log>
    452d:	48 8b 0d 54 6d 01 00 	mov    0x16d54(%rip),%rcx        # 1b288 <jstring_temporary_memory_info+0x8>
    4534:	48 8b 15 45 6d 01 00 	mov    0x16d45(%rip),%rdx        # 1b280 <jstring_temporary_memory_info>
    453b:	48 8b 45 e8          	mov    -0x18(%rbp),%rax
    453f:	48 8d 3d da ec 00 00 	lea    0xecda(%rip),%rdi        # 13220 <_IO_stdin_used+0x220>
    4546:	48 89 c6             	mov    %rax,%rsi
    4549:	b8 00 00 00 00       	mov    $0x0,%eax
    454e:	41 ff d0             	call   *%r8
    4551:	b8 00 00 00 00       	mov    $0x0,%eax
    4556:	eb 2e                	jmp    4586 <jstring_temporary_memory_allocate_string+0xaf>
    4558:	48 8b 15 31 6d 01 00 	mov    0x16d31(%rip),%rdx        # 1b290 <jstring_temporary_memory_info+0x10>
    455f:	48 8b 05 22 6d 01 00 	mov    0x16d22(%rip),%rax        # 1b288 <jstring_temporary_memory_info+0x8>
    4566:	48 01 d0             	add    %rdx,%rax
    4569:	48 89 45 f8          	mov    %rax,-0x8(%rbp)
    456d:	48 8b 15 14 6d 01 00 	mov    0x16d14(%rip),%rdx        # 1b288 <jstring_temporary_memory_info+0x8>
    4574:	48 8b 45 e8          	mov    -0x18(%rbp),%rax
    4578:	48 01 d0             	add    %rdx,%rax
    457b:	48 89 05 06 6d 01 00 	mov    %rax,0x16d06(%rip)        # 1b288 <jstring_temporary_memory_info+0x8>
    4582:	48 8b 45 f8          	mov    -0x8(%rbp),%rax
    4586:	c9                   	leave
    4587:	c3                   	ret

0000000000004588 <jstring_create_temporary>:
    4588:	55                   	push   %rbp
    4589:	48 89 e5             	mov    %rsp,%rbp
    458c:	41 56                	push   %r14
    458e:	41 55                	push   %r13
    4590:	41 54                	push   %r12
    4592:	53                   	push   %rbx
    4593:	48 83 ec 60          	sub    $0x60,%rsp
    4597:	48 89 7d 88          	mov    %rdi,-0x78(%rbp)
    459b:	48 89 75 80          	mov    %rsi,-0x80(%rbp)
    459f:	4c 8d 65 a0          	lea    -0x60(%rbp),%r12
    45a3:	4d 89 e6             	mov    %r12,%r14
    45a6:	83 3d b3 6c 01 00 00 	cmpl   $0x0,0x16cb3(%rip)        # 1b260 <__asan_option_detect_stack_use_after_return@@Base>
    45ad:	74 12                	je     45c1 <jstring_create_temporary+0x39>
    45af:	bf 40 00 00 00       	mov    $0x40,%edi
    45b4:	e8 e7 fa ff ff       	call   40a0 <__asan_stack_malloc_0@plt>
    45b9:	48 85 c0             	test   %rax,%rax
    45bc:	74 03                	je     45c1 <jstring_create_temporary+0x39>
    45be:	49 89 c4             	mov    %rax,%r12
    45c1:	49 8d 44 24 40       	lea    0x40(%r12),%rax
    45c6:	48 89 c3             	mov    %rax,%rbx
    45c9:	49 c7 04 24 b3 8a b5 	movq   $0x41b58ab3,(%r12)
    45d0:	41 
    45d1:	48 8d 05 08 ed 00 00 	lea    0xed08(%rip),%rax        # 132e0 <_IO_stdin_used+0x2e0>
    45d8:	49 89 44 24 08       	mov    %rax,0x8(%r12)
    45dd:	48 8d 05 a4 ff ff ff 	lea    -0x5c(%rip),%rax        # 4588 <jstring_create_temporary>
    45e4:	49 89 44 24 10       	mov    %rax,0x10(%r12)
    45e9:	4d 89 e5             	mov    %r12,%r13
    45ec:	49 c1 ed 03          	shr    $0x3,%r13
    45f0:	41 c7 85 00 80 ff 7f 	movl   $0xf1f1f1f1,0x7fff8000(%r13)
    45f7:	f1 f1 f1 f1 
    45fb:	41 c7 85 04 80 ff 7f 	movl   $0xf3f30000,0x7fff8004(%r13)
    4602:	00 00 f3 f3 
    4606:	c7 43 e0 00 00 00 00 	movl   $0x0,-0x20(%rbx)
    460d:	c7 43 e4 00 00 00 00 	movl   $0x0,-0x1c(%rbx)
    4614:	48 c7 43 e8 00 00 00 	movq   $0x0,-0x18(%rbx)
    461b:	00 
    461c:	48 83 7d 88 00       	cmpq   $0x0,-0x78(%rbp)
    4621:	75 2c                	jne    464f <jstring_create_temporary+0xc7>
    4623:	48 8b 15 16 4b 01 00 	mov    0x14b16(%rip),%rdx        # 19140 <jstring_log>
    462a:	48 8b 45 88          	mov    -0x78(%rbp),%rax
    462e:	48 8d 0d cb ec 00 00 	lea    0xeccb(%rip),%rcx        # 13300 <_IO_stdin_used+0x300>
    4635:	48 89 c6             	mov    %rax,%rsi
    4638:	48 89 cf             	mov    %rcx,%rdi
    463b:	b8 00 00 00 00       	mov    $0x0,%eax
    4640:	ff d2                	call   *%rdx
    4642:	48 8b 43 e0          	mov    -0x20(%rbx),%rax
    4646:	48 8b 53 e8          	mov    -0x18(%rbx),%rdx
    464a:	e9 9c 01 00 00       	jmp    47eb <jstring_create_temporary+0x263>
    464f:	48 8b 45 80          	mov    -0x80(%rbp),%rax
    4653:	89 43 e0             	mov    %eax,-0x20(%rbx)
    4656:	48 8b 45 80          	mov    -0x80(%rbp),%rax
    465a:	48 83 c0 01          	add    $0x1,%rax
    465e:	01 c0                	add    %eax,%eax
    4660:	89 43 e4             	mov    %eax,-0x1c(%rbx)
    4663:	8b 43 e4             	mov    -0x1c(%rbx),%eax
    4666:	89 c0                	mov    %eax,%eax
    4668:	48 89 c7             	mov    %rax,%rdi
    466b:	e8 67 fe ff ff       	call   44d7 <jstring_temporary_memory_allocate_string>
    4670:	48 89 45 98          	mov    %rax,-0x68(%rbp)
    4674:	c7 45 94 00 00 00 00 	movl   $0x0,-0x6c(%rbp)
    467b:	e9 0b 01 00 00       	jmp    478b <jstring_create_temporary+0x203>
    4680:	8b 55 94             	mov    -0x6c(%rbp),%edx
    4683:	48 8b 45 88          	mov    -0x78(%rbp),%rax
    4687:	48 8d 0c 02          	lea    (%rdx,%rax,1),%rcx
    468b:	48 89 c8             	mov    %rcx,%rax
    468e:	48 89 c2             	mov    %rax,%rdx
    4691:	48 c1 ea 03          	shr    $0x3,%rdx
    4695:	48 81 c2 00 80 ff 7f 	add    $0x7fff8000,%rdx
    469c:	0f b6 12             	movzbl (%rdx),%edx
    469f:	84 d2                	test   %dl,%dl
    46a1:	40 0f 95 c6          	setne  %sil
    46a5:	48 89 c7             	mov    %rax,%rdi
    46a8:	83 e7 07             	and    $0x7,%edi
    46ab:	40 38 d7             	cmp    %dl,%dil
    46ae:	0f 9d c2             	setge  %dl
    46b1:	21 f2                	and    %esi,%edx
    46b3:	84 d2                	test   %dl,%dl
    46b5:	74 08                	je     46bf <jstring_create_temporary+0x137>
    46b7:	48 89 c7             	mov    %rax,%rdi
    46ba:	e8 d1 fa ff ff       	call   4190 <__asan_report_load1@plt>
    46bf:	0f b6 01             	movzbl (%rcx),%eax
    46c2:	84 c0                	test   %al,%al
    46c4:	75 3b                	jne    4701 <jstring_create_temporary+0x179>
    46c6:	48 8b 15 73 4a 01 00 	mov    0x14a73(%rip),%rdx        # 19140 <jstring_log>
    46cd:	48 8d 05 cc ec 00 00 	lea    0xeccc(%rip),%rax        # 133a0 <_IO_stdin_used+0x3a0>
    46d4:	48 89 c7             	mov    %rax,%rdi
    46d7:	b8 00 00 00 00       	mov    $0x0,%eax
    46dc:	ff d2                	call   *%rdx
    46de:	c7 43 e0 00 00 00 00 	movl   $0x0,-0x20(%rbx)
    46e5:	c7 43 e4 00 00 00 00 	movl   $0x0,-0x1c(%rbx)
    46ec:	48 c7 43 e8 00 00 00 	movq   $0x0,-0x18(%rbx)
    46f3:	00 
    46f4:	48 8b 43 e0          	mov    -0x20(%rbx),%rax
    46f8:	48 8b 53 e8          	mov    -0x18(%rbx),%rdx
    46fc:	e9 ea 00 00 00       	jmp    47eb <jstring_create_temporary+0x263>
    4701:	8b 55 94             	mov    -0x6c(%rbp),%edx
    4704:	48 8b 45 88          	mov    -0x78(%rbp),%rax
    4708:	48 8d 34 02          	lea    (%rdx,%rax,1),%rsi
    470c:	8b 55 94             	mov    -0x6c(%rbp),%edx
    470f:	48 8b 45 98          	mov    -0x68(%rbp),%rax
    4713:	48 8d 0c 02          	lea    (%rdx,%rax,1),%rcx
    4717:	48 89 f0             	mov    %rsi,%rax
    471a:	48 89 c2             	mov    %rax,%rdx
    471d:	48 c1 ea 03          	shr    $0x3,%rdx
    4721:	48 81 c2 00 80 ff 7f 	add    $0x7fff8000,%rdx
    4728:	0f b6 12             	movzbl (%rdx),%edx
    472b:	84 d2                	test   %dl,%dl
    472d:	40 0f 95 c7          	setne  %dil
    4731:	49 89 c0             	mov    %rax,%r8
    4734:	41 83 e0 07          	and    $0x7,%r8d
    4738:	41 38 d0             	cmp    %dl,%r8b
    473b:	0f 9d c2             	setge  %dl
    473e:	21 fa                	and    %edi,%edx
    4740:	84 d2                	test   %dl,%dl
    4742:	74 08                	je     474c <jstring_create_temporary+0x1c4>
    4744:	48 89 c7             	mov    %rax,%rdi
    4747:	e8 44 fa ff ff       	call   4190 <__asan_report_load1@plt>
    474c:	0f b6 36             	movzbl (%rsi),%esi
    474f:	48 89 c8             	mov    %rcx,%rax
    4752:	48 89 c2             	mov    %rax,%rdx
    4755:	48 c1 ea 03          	shr    $0x3,%rdx
    4759:	48 81 c2 00 80 ff 7f 	add    $0x7fff8000,%rdx
    4760:	0f b6 12             	movzbl (%rdx),%edx
    4763:	84 d2                	test   %dl,%dl
    4765:	40 0f 95 c7          	setne  %dil
    4769:	49 89 c0             	mov    %rax,%r8
    476c:	41 83 e0 07          	and    $0x7,%r8d
    4770:	41 38 d0             	cmp    %dl,%r8b
    4773:	0f 9d c2             	setge  %dl
    4776:	21 fa                	and    %edi,%edx
    4778:	84 d2                	test   %dl,%dl
    477a:	74 08                	je     4784 <jstring_create_temporary+0x1fc>
    477c:	48 89 c7             	mov    %rax,%rdi
    477f:	e8 2c fa ff ff       	call   41b0 <__asan_report_store1@plt>
    4784:	40 88 31             	mov    %sil,(%rcx)
    4787:	83 45 94 01          	addl   $0x1,-0x6c(%rbp)
    478b:	8b 45 94             	mov    -0x6c(%rbp),%eax
    478e:	48 3b 45 80          	cmp    -0x80(%rbp),%rax
    4792:	0f 82 e8 fe ff ff    	jb     4680 <jstring_create_temporary+0xf8>
    4798:	48 8b 55 98          	mov    -0x68(%rbp),%rdx
    479c:	48 8b 45 80          	mov    -0x80(%rbp),%rax
    47a0:	48 8d 0c 02          	lea    (%rdx,%rax,1),%rcx
    47a4:	48 89 c8             	mov    %rcx,%rax
    47a7:	48 89 c2             	mov    %rax,%rdx
    47aa:	48 c1 ea 03          	shr    $0x3,%rdx
    47ae:	48 81 c2 00 80 ff 7f 	add    $0x7fff8000,%rdx
    47b5:	0f b6 12             	movzbl (%rdx),%edx
    47b8:	84 d2                	test   %dl,%dl
    47ba:	40 0f 95 c6          	setne  %sil
    47be:	48 89 c7             	mov    %rax,%rdi
    47c1:	83 e7 07             	and    $0x7,%edi
    47c4:	40 38 d7             	cmp    %dl,%dil
    47c7:	0f 9d c2             	setge  %dl
    47ca:	21 f2                	and    %esi,%edx
    47cc:	84 d2                	test   %dl,%dl
    47ce:	74 08                	je     47d8 <jstring_create_temporary+0x250>
    47d0:	48 89 c7             	mov    %rax,%rdi
    47d3:	e8 d8 f9 ff ff       	call   41b0 <__asan_report_store1@plt>
    47d8:	c6 01 00             	movb   $0x0,(%rcx)
    47db:	48 8b 45 98          	mov    -0x68(%rbp),%rax
    47df:	48 89 43 e8          	mov    %rax,-0x18(%rbx)
    47e3:	48 8b 43 e0          	mov    -0x20(%rbx),%rax
    47e7:	48 8b 53 e8          	mov    -0x18(%rbx),%rdx
    47eb:	4d 39 e6             	cmp    %r12,%r14
    47ee:	74 23                	je     4813 <jstring_create_temporary+0x28b>
    47f0:	49 c7 04 24 0e 36 e0 	movq   $0x45e0360e,(%r12)
    47f7:	45 
    47f8:	48 be f5 f5 f5 f5 f5 	movabs $0xf5f5f5f5f5f5f5f5,%rsi
    47ff:	f5 f5 f5 
    4802:	49 89 b5 00 80 ff 7f 	mov    %rsi,0x7fff8000(%r13)
    4809:	49 8b 4c 24 38       	mov    0x38(%r12),%rcx
    480e:	c6 01 00             	movb   $0x0,(%rcx)
    4811:	eb 0b                	jmp    481e <jstring_create_temporary+0x296>
    4813:	49 c7 85 00 80 ff 7f 	movq   $0x0,0x7fff8000(%r13)
    481a:	00 00 00 00 
    481e:	48 83 c4 60          	add    $0x60,%rsp
    4822:	5b                   	pop    %rbx
    4823:	41 5c                	pop    %r12
    4825:	41 5d                	pop    %r13
    4827:	41 5e                	pop    %r14
    4829:	5d                   	pop    %rbp
    482a:	c3                   	ret

000000000000482b <jstring_create_temporary_from_initial_chars>:
    482b:	55                   	push   %rbp
    482c:	48 89 e5             	mov    %rsp,%rbp
    482f:	41 56                	push   %r14
    4831:	41 55                	push   %r13
    4833:	41 54                	push   %r12
    4835:	53                   	push   %rbx
    4836:	48 83 ec 60          	sub    $0x60,%rsp
    483a:	48 89 7d 88          	mov    %rdi,-0x78(%rbp)
    483e:	48 89 75 80          	mov    %rsi,-0x80(%rbp)
    4842:	4c 8d 65 a0          	lea    -0x60(%rbp),%r12
    4846:	4d 89 e6             	mov    %r12,%r14
    4849:	83 3d 10 6a 01 00 00 	cmpl   $0x0,0x16a10(%rip)        # 1b260 <__asan_option_detect_stack_use_after_return@@Base>
    4850:	74 12                	je     4864 <jstring_create_temporary_from_initial_chars+0x39>
    4852:	bf 40 00 00 00       	mov    $0x40,%edi
    4857:	e8 44 f8 ff ff       	call   40a0 <__asan_stack_malloc_0@plt>
    485c:	48 85 c0             	test   %rax,%rax
    485f:	74 03                	je     4864 <jstring_create_temporary_from_initial_chars+0x39>
    4861:	49 89 c4             	mov    %rax,%r12
    4864:	49 8d 44 24 40       	lea    0x40(%r12),%rax
    4869:	48 89 c3             	mov    %rax,%rbx
    486c:	49 c7 04 24 b3 8a b5 	movq   $0x41b58ab3,(%r12)
    4873:	41 
    4874:	48 8d 05 c5 eb 00 00 	lea    0xebc5(%rip),%rax        # 13440 <_IO_stdin_used+0x440>
    487b:	49 89 44 24 08       	mov    %rax,0x8(%r12)
    4880:	48 8d 05 a4 ff ff ff 	lea    -0x5c(%rip),%rax        # 482b <jstring_create_temporary_from_initial_chars>
    4887:	49 89 44 24 10       	mov    %rax,0x10(%r12)
    488c:	4d 89 e5             	mov    %r12,%r13
    488f:	49 c1 ed 03          	shr    $0x3,%r13
    4893:	41 c7 85 00 80 ff 7f 	movl   $0xf1f1f1f1,0x7fff8000(%r13)
    489a:	f1 f1 f1 f1 
    489e:	41 c7 85 04 80 ff 7f 	movl   $0xf3f30000,0x7fff8004(%r13)
    48a5:	00 00 f3 f3 
    48a9:	c7 43 e0 00 00 00 00 	movl   $0x0,-0x20(%rbx)
    48b0:	c7 43 e4 00 00 00 00 	movl   $0x0,-0x1c(%rbx)
    48b7:	48 c7 43 e8 00 00 00 	movq   $0x0,-0x18(%rbx)
    48be:	00 
    48bf:	48 83 7d 88 00       	cmpq   $0x0,-0x78(%rbp)
    48c4:	75 2c                	jne    48f2 <jstring_create_temporary_from_initial_chars+0xc7>
    48c6:	48 8b 15 73 48 01 00 	mov    0x14873(%rip),%rdx        # 19140 <jstring_log>
    48cd:	48 8b 45 88          	mov    -0x78(%rbp),%rax
    48d1:	48 8d 0d 88 eb 00 00 	lea    0xeb88(%rip),%rcx        # 13460 <_IO_stdin_used+0x460>
    48d8:	48 89 c6             	mov    %rax,%rsi
    48db:	48 89 cf             	mov    %rcx,%rdi
    48de:	b8 00 00 00 00       	mov    $0x0,%eax
    48e3:	ff d2                	call   *%rdx
    48e5:	48 8b 43 e0          	mov    -0x20(%rbx),%rax
    48e9:	48 8b 53 e8          	mov    -0x18(%rbx),%rdx
    48ed:	e9 9c 01 00 00       	jmp    4a8e <jstring_create_temporary_from_initial_chars+0x263>
    48f2:	48 8b 45 80          	mov    -0x80(%rbp),%rax
    48f6:	89 43 e0             	mov    %eax,-0x20(%rbx)
    48f9:	48 8b 45 80          	mov    -0x80(%rbp),%rax
    48fd:	48 83 c0 01          	add    $0x1,%rax
    4901:	01 c0                	add    %eax,%eax
    4903:	89 43 e4             	mov    %eax,-0x1c(%rbx)
    4906:	8b 43 e4             	mov    -0x1c(%rbx),%eax
    4909:	89 c0                	mov    %eax,%eax
    490b:	48 89 c7             	mov    %rax,%rdi
    490e:	e8 c4 fb ff ff       	call   44d7 <jstring_temporary_memory_allocate_string>
    4913:	48 89 45 98          	mov    %rax,-0x68(%rbp)
    4917:	c7 45 94 00 00 00 00 	movl   $0x0,-0x6c(%rbp)
    491e:	e9 0b 01 00 00       	jmp    4a2e <jstring_create_temporary_from_initial_chars+0x203>
    4923:	8b 55 94             	mov    -0x6c(%rbp),%edx
    4926:	48 8b 45 88          	mov    -0x78(%rbp),%rax
    492a:	48 8d 0c 02          	lea    (%rdx,%rax,1),%rcx
    492e:	48 89 c8             	mov    %rcx,%rax
    4931:	48 89 c2             	mov    %rax,%rdx
    4934:	48 c1 ea 03          	shr    $0x3,%rdx
    4938:	48 81 c2 00 80 ff 7f 	add    $0x7fff8000,%rdx
    493f:	0f b6 12             	movzbl (%rdx),%edx
    4942:	84 d2                	test   %dl,%dl
    4944:	40 0f 95 c6          	setne  %sil
    4948:	48 89 c7             	mov    %rax,%rdi
    494b:	83 e7 07             	and    $0x7,%edi
    494e:	40 38 d7             	cmp    %dl,%dil
    4951:	0f 9d c2             	setge  %dl
    4954:	21 f2                	and    %esi,%edx
    4956:	84 d2                	test   %dl,%dl
    4958:	74 08                	je     4962 <jstring_create_temporary_from_initial_chars+0x137>
    495a:	48 89 c7             	mov    %rax,%rdi
    495d:	e8 2e f8 ff ff       	call   4190 <__asan_report_load1@plt>
    4962:	0f b6 01             	movzbl (%rcx),%eax
    4965:	84 c0                	test   %al,%al
    4967:	75 3b                	jne    49a4 <jstring_create_temporary_from_initial_chars+0x179>
    4969:	48 8b 15 d0 47 01 00 	mov    0x147d0(%rip),%rdx        # 19140 <jstring_log>
    4970:	48 8d 05 89 eb 00 00 	lea    0xeb89(%rip),%rax        # 13500 <_IO_stdin_used+0x500>
    4977:	48 89 c7             	mov    %rax,%rdi
    497a:	b8 00 00 00 00       	mov    $0x0,%eax
    497f:	ff d2                	call   *%rdx
    4981:	c7 43 e0 00 00 00 00 	movl   $0x0,-0x20(%rbx)
    4988:	c7 43 e4 00 00 00 00 	movl   $0x0,-0x1c(%rbx)
    498f:	48 c7 43 e8 00 00 00 	movq   $0x0,-0x18(%rbx)
    4996:	00 
    4997:	48 8b 43 e0          	mov    -0x20(%rbx),%rax
    499b:	48 8b 53 e8          	mov    -0x18(%rbx),%rdx
    499f:	e9 ea 00 00 00       	jmp    4a8e <jstring_create_temporary_from_initial_chars+0x263>
    49a4:	8b 55 94             	mov    -0x6c(%rbp),%edx
    49a7:	48 8b 45 88          	mov    -0x78(%rbp),%rax
    49ab:	48 8d 34 02          	lea    (%rdx,%rax,1),%rsi
    49af:	8b 55 94             	mov    -0x6c(%rbp),%edx
    49b2:	48 8b 45 98          	mov    -0x68(%rbp),%rax
    49b6:	48 8d 0c 02          	lea    (%rdx,%rax,1),%rcx
    49ba:	48 89 f0             	mov    %rsi,%rax
    49bd:	48 89 c2             	mov    %rax,%rdx
    49c0:	48 c1 ea 03          	shr    $0x3,%rdx
    49c4:	48 81 c2 00 80 ff 7f 	add    $0x7fff8000,%rdx
    49cb:	0f b6 12             	movzbl (%rdx),%edx
    49ce:	84 d2                	test   %dl,%dl
    49d0:	40 0f 95 c7          	setne  %dil
    49d4:	49 89 c0             	mov    %rax,%r8
    49d7:	41 83 e0 07          	and    $0x7,%r8d
    49db:	41 38 d0             	cmp    %dl,%r8b
    49de:	0f 9d c2             	setge  %dl
    49e1:	21 fa                	and    %edi,%edx
    49e3:	84 d2                	test   %dl,%dl
    49e5:	74 08                	je     49ef <jstring_create_temporary_from_initial_chars+0x1c4>
    49e7:	48 89 c7             	mov    %rax,%rdi
    49ea:	e8 a1 f7 ff ff       	call   4190 <__asan_report_load1@plt>
    49ef:	0f b6 36             	movzbl (%rsi),%esi
    49f2:	48 89 c8             	mov    %rcx,%rax
    49f5:	48 89 c2             	mov    %rax,%rdx
    49f8:	48 c1 ea 03          	shr    $0x3,%rdx
    49fc:	48 81 c2 00 80 ff 7f 	add    $0x7fff8000,%rdx
    4a03:	0f b6 12             	movzbl (%rdx),%edx
    4a06:	84 d2                	test   %dl,%dl
    4a08:	40 0f 95 c7          	setne  %dil
    4a0c:	49 89 c0             	mov    %rax,%r8
    4a0f:	41 83 e0 07          	and    $0x7,%r8d
    4a13:	41 38 d0             	cmp    %dl,%r8b
    4a16:	0f 9d c2             	setge  %dl
    4a19:	21 fa                	and    %edi,%edx
    4a1b:	84 d2                	test   %dl,%dl
    4a1d:	74 08                	je     4a27 <jstring_create_temporary_from_initial_chars+0x1fc>
    4a1f:	48 89 c7             	mov    %rax,%rdi
    4a22:	e8 89 f7 ff ff       	call   41b0 <__asan_report_store1@plt>
    4a27:	40 88 31             	mov    %sil,(%rcx)
    4a2a:	83 45 94 01          	addl   $0x1,-0x6c(%rbp)
    4a2e:	8b 45 94             	mov    -0x6c(%rbp),%eax
    4a31:	48 3b 45 80          	cmp    -0x80(%rbp),%rax
    4a35:	0f 82 e8 fe ff ff    	jb     4923 <jstring_create_temporary_from_initial_chars+0xf8>
    4a3b:	48 8b 55 98          	mov    -0x68(%rbp),%rdx
    4a3f:	48 8b 45 80          	mov    -0x80(%rbp),%rax
    4a43:	48 8d 0c 02          	lea    (%rdx,%rax,1),%rcx
    4a47:	48 89 c8             	mov    %rcx,%rax
    4a4a:	48 89 c2             	mov    %rax,%rdx
    4a4d:	48 c1 ea 03          	shr    $0x3,%rdx
    4a51:	48 81 c2 00 80 ff 7f 	add    $0x7fff8000,%rdx
    4a58:	0f b6 12             	movzbl (%rdx),%edx
    4a5b:	84 d2                	test   %dl,%dl
    4a5d:	40 0f 95 c6          	setne  %sil
    4a61:	48 89 c7             	mov    %rax,%rdi
    4a64:	83 e7 07             	and    $0x7,%edi
    4a67:	40 38 d7             	cmp    %dl,%dil
    4a6a:	0f 9d c2             	setge  %dl
    4a6d:	21 f2                	and    %esi,%edx
    4a6f:	84 d2                	test   %dl,%dl
    4a71:	74 08                	je     4a7b <jstring_create_temporary_from_initial_chars+0x250>
    4a73:	48 89 c7             	mov    %rax,%rdi
    4a76:	e8 35 f7 ff ff       	call   41b0 <__asan_report_store1@plt>
    4a7b:	c6 01 00             	movb   $0x0,(%rcx)
    4a7e:	48 8b 45 98          	mov    -0x68(%rbp),%rax
    4a82:	48 89 43 e8          	mov    %rax,-0x18(%rbx)
    4a86:	48 8b 43 e0          	mov    -0x20(%rbx),%rax
    4a8a:	48 8b 53 e8          	mov    -0x18(%rbx),%rdx
    4a8e:	4d 39 e6             	cmp    %r12,%r14
    4a91:	74 23                	je     4ab6 <jstring_create_temporary_from_initial_chars+0x28b>
    4a93:	49 c7 04 24 0e 36 e0 	movq   $0x45e0360e,(%r12)
    4a9a:	45 
    4a9b:	48 be f5 f5 f5 f5 f5 	movabs $0xf5f5f5f5f5f5f5f5,%rsi
    4aa2:	f5 f5 f5 
    4aa5:	49 89 b5 00 80 ff 7f 	mov    %rsi,0x7fff8000(%r13)
    4aac:	49 8b 4c 24 38       	mov    0x38(%r12),%rcx
    4ab1:	c6 01 00             	movb   $0x0,(%rcx)
    4ab4:	eb 0b                	jmp    4ac1 <jstring_create_temporary_from_initial_chars+0x296>
    4ab6:	49 c7 85 00 80 ff 7f 	movq   $0x0,0x7fff8000(%r13)
    4abd:	00 00 00 00 
    4ac1:	48 83 c4 60          	add    $0x60,%rsp
    4ac5:	5b                   	pop    %rbx
    4ac6:	41 5c                	pop    %r12
    4ac8:	41 5d                	pop    %r13
    4aca:	41 5e                	pop    %r14
    4acc:	5d                   	pop    %rbp
    4acd:	c3                   	ret

0000000000004ace <jstring_create_format_string>:
    4ace:	55                   	push   %rbp
    4acf:	48 89 e5             	mov    %rsp,%rbp
    4ad2:	48 83 ec 48          	sub    $0x48,%rsp
    4ad6:	48 89 bd 48 ff ff ff 	mov    %rdi,-0xb8(%rbp)
    4add:	48 89 b5 58 ff ff ff 	mov    %rsi,-0xa8(%rbp)
    4ae4:	48 89 95 60 ff ff ff 	mov    %rdx,-0xa0(%rbp)
    4aeb:	48 89 8d 68 ff ff ff 	mov    %rcx,-0x98(%rbp)
    4af2:	4c 89 85 70 ff ff ff 	mov    %r8,-0x90(%rbp)
    4af9:	4c 89 8d 78 ff ff ff 	mov    %r9,-0x88(%rbp)
    4b00:	84 c0                	test   %al,%al
    4b02:	74 20                	je     4b24 <jstring_create_format_string+0x56>
    4b04:	0f 29 45 80          	movaps %xmm0,-0x80(%rbp)
    4b08:	0f 29 4d 90          	movaps %xmm1,-0x70(%rbp)
    4b0c:	0f 29 55 a0          	movaps %xmm2,-0x60(%rbp)
    4b10:	0f 29 5d b0          	movaps %xmm3,-0x50(%rbp)
    4b14:	0f 29 65 c0          	movaps %xmm4,-0x40(%rbp)
    4b18:	0f 29 6d d0          	movaps %xmm5,-0x30(%rbp)
    4b1c:	0f 29 75 e0          	movaps %xmm6,-0x20(%rbp)
    4b20:	0f 29 7d f0          	movaps %xmm7,-0x10(%rbp)
    4b24:	b8 01 00 00 00       	mov    $0x1,%eax
    4b29:	c9                   	leave
    4b2a:	c3                   	ret

0000000000004b2b <jstring_length>:
    4b2b:	55                   	push   %rbp
    4b2c:	48 89 e5             	mov    %rsp,%rbp
    4b2f:	48 83 ec 20          	sub    $0x20,%rsp
    4b33:	48 89 7d e8          	mov    %rdi,-0x18(%rbp)
    4b37:	48 8b 45 e8          	mov    -0x18(%rbp),%rax
    4b3b:	48 89 45 f8          	mov    %rax,-0x8(%rbp)
    4b3f:	c7 45 f4 00 00 00 00 	movl   $0x0,-0xc(%rbp)
    4b46:	eb 7d                	jmp    4bc5 <jstring_length+0x9a>
    4b48:	48 83 45 f8 01       	addq   $0x1,-0x8(%rbp)
    4b4d:	83 45 f4 01          	addl   $0x1,-0xc(%rbp)
    4b51:	81 7d f4 ff 0f 00 00 	cmpl   $0xfff,-0xc(%rbp)
    4b58:	76 6b                	jbe    4bc5 <jstring_length+0x9a>
    4b5a:	4c 8b 05 df 45 01 00 	mov    0x145df(%rip),%r8        # 19140 <jstring_log>
    4b61:	48 8d 15 38 ea 00 00 	lea    0xea38(%rip),%rdx        # 135a0 <_IO_stdin_used+0x5a0>
    4b68:	48 8d 35 71 ea 00 00 	lea    0xea71(%rip),%rsi        # 135e0 <_IO_stdin_used+0x5e0>
    4b6f:	48 8d 05 aa ea 00 00 	lea    0xeaaa(%rip),%rax        # 13620 <_IO_stdin_used+0x620>
    4b76:	b9 26 01 00 00       	mov    $0x126,%ecx
    4b7b:	48 89 c7             	mov    %rax,%rdi
    4b7e:	b8 00 00 00 00       	mov    $0x0,%eax
    4b83:	41 ff d0             	call   *%r8
    4b86:	b9 00 00 00 00       	mov    $0x0,%ecx
    4b8b:	48 89 c8             	mov    %rcx,%rax
    4b8e:	48 89 c2             	mov    %rax,%rdx
    4b91:	48 c1 ea 03          	shr    $0x3,%rdx
    4b95:	48 81 c2 00 80 ff 7f 	add    $0x7fff8000,%rdx
    4b9c:	0f b6 12             	movzbl (%rdx),%edx
    4b9f:	84 d2                	test   %dl,%dl
    4ba1:	40 0f 95 c6          	setne  %sil
    4ba5:	48 89 c7             	mov    %rax,%rdi
    4ba8:	83 e7 07             	and    $0x7,%edi
    4bab:	40 38 d7             	cmp    %dl,%dil
    4bae:	0f 9d c2             	setge  %dl
    4bb1:	21 f2                	and    %esi,%edx
    4bb3:	84 d2                	test   %dl,%dl
    4bb5:	74 08                	je     4bbf <jstring_length+0x94>
    4bb7:	48 89 c7             	mov    %rax,%rdi
    4bba:	e8 d1 f5 ff ff       	call   4190 <__asan_report_load1@plt>
    4bbf:	0f b6 01             	movzbl (%rcx),%eax
    4bc2:	88 45 f3             	mov    %al,-0xd(%rbp)
    4bc5:	48 8b 45 f8          	mov    -0x8(%rbp),%rax
    4bc9:	48 89 c2             	mov    %rax,%rdx
    4bcc:	48 c1 ea 03          	shr    $0x3,%rdx
    4bd0:	48 81 c2 00 80 ff 7f 	add    $0x7fff8000,%rdx
    4bd7:	0f b6 12             	movzbl (%rdx),%edx
    4bda:	84 d2                	test   %dl,%dl
    4bdc:	0f 95 c1             	setne  %cl
    4bdf:	48 89 c6             	mov    %rax,%rsi
    4be2:	83 e6 07             	and    $0x7,%esi
    4be5:	40 38 d6             	cmp    %dl,%sil
    4be8:	0f 9d c2             	setge  %dl
    4beb:	21 ca                	and    %ecx,%edx
    4bed:	84 d2                	test   %dl,%dl
    4bef:	74 08                	je     4bf9 <jstring_length+0xce>
    4bf1:	48 89 c7             	mov    %rax,%rdi
    4bf4:	e8 97 f5 ff ff       	call   4190 <__asan_report_load1@plt>
    4bf9:	48 8b 45 f8          	mov    -0x8(%rbp),%rax
    4bfd:	0f b6 00             	movzbl (%rax),%eax
    4c00:	84 c0                	test   %al,%al
    4c02:	0f 85 40 ff ff ff    	jne    4b48 <jstring_length+0x1d>
    4c08:	8b 45 f4             	mov    -0xc(%rbp),%eax
    4c0b:	c9                   	leave
    4c0c:	c3                   	ret

0000000000004c0d <jstring_compare_raw>:
    4c0d:	55                   	push   %rbp
    4c0e:	48 89 e5             	mov    %rsp,%rbp
    4c11:	48 83 ec 20          	sub    $0x20,%rsp
    4c15:	48 89 7d e8          	mov    %rdi,-0x18(%rbp)
    4c19:	48 89 75 e0          	mov    %rsi,-0x20(%rbp)
    4c1d:	c7 45 fc 00 00 00 00 	movl   $0x0,-0x4(%rbp)
    4c24:	e9 2c 01 00 00       	jmp    4d55 <jstring_compare_raw+0x148>
    4c29:	8b 55 fc             	mov    -0x4(%rbp),%edx
    4c2c:	48 8b 45 e8          	mov    -0x18(%rbp),%rax
    4c30:	48 8d 0c 02          	lea    (%rdx,%rax,1),%rcx
    4c34:	48 89 c8             	mov    %rcx,%rax
    4c37:	48 89 c2             	mov    %rax,%rdx
    4c3a:	48 c1 ea 03          	shr    $0x3,%rdx
    4c3e:	48 81 c2 00 80 ff 7f 	add    $0x7fff8000,%rdx
    4c45:	0f b6 12             	movzbl (%rdx),%edx
    4c48:	84 d2                	test   %dl,%dl
    4c4a:	40 0f 95 c6          	setne  %sil
    4c4e:	48 89 c7             	mov    %rax,%rdi
    4c51:	83 e7 07             	and    $0x7,%edi
    4c54:	40 38 d7             	cmp    %dl,%dil
    4c57:	0f 9d c2             	setge  %dl
    4c5a:	21 f2                	and    %esi,%edx
    4c5c:	84 d2                	test   %dl,%dl
    4c5e:	74 08                	je     4c68 <jstring_compare_raw+0x5b>
    4c60:	48 89 c7             	mov    %rax,%rdi
    4c63:	e8 28 f5 ff ff       	call   4190 <__asan_report_load1@plt>
    4c68:	0f b6 31             	movzbl (%rcx),%esi
    4c6b:	8b 55 fc             	mov    -0x4(%rbp),%edx
    4c6e:	48 8b 45 e0          	mov    -0x20(%rbp),%rax
    4c72:	48 8d 0c 02          	lea    (%rdx,%rax,1),%rcx
    4c76:	48 89 c8             	mov    %rcx,%rax
    4c79:	48 89 c2             	mov    %rax,%rdx
    4c7c:	48 c1 ea 03          	shr    $0x3,%rdx
    4c80:	48 81 c2 00 80 ff 7f 	add    $0x7fff8000,%rdx
    4c87:	0f b6 12             	movzbl (%rdx),%edx
    4c8a:	84 d2                	test   %dl,%dl
    4c8c:	40 0f 95 c7          	setne  %dil
    4c90:	49 89 c0             	mov    %rax,%r8
    4c93:	41 83 e0 07          	and    $0x7,%r8d
    4c97:	41 38 d0             	cmp    %dl,%r8b
    4c9a:	0f 9d c2             	setge  %dl
    4c9d:	21 fa                	and    %edi,%edx
    4c9f:	84 d2                	test   %dl,%dl
    4ca1:	74 08                	je     4cab <jstring_compare_raw+0x9e>
    4ca3:	48 89 c7             	mov    %rax,%rdi
    4ca6:	e8 e5 f4 ff ff       	call   4190 <__asan_report_load1@plt>
    4cab:	0f b6 01             	movzbl (%rcx),%eax
    4cae:	40 38 c6             	cmp    %al,%sil
    4cb1:	7d 0a                	jge    4cbd <jstring_compare_raw+0xb0>
    4cb3:	b8 ff ff ff ff       	mov    $0xffffffff,%eax
    4cb8:	e9 52 02 00 00       	jmp    4f0f <jstring_compare_raw+0x302>
    4cbd:	8b 55 fc             	mov    -0x4(%rbp),%edx
    4cc0:	48 8b 45 e8          	mov    -0x18(%rbp),%rax
    4cc4:	48 8d 0c 02          	lea    (%rdx,%rax,1),%rcx
    4cc8:	48 89 c8             	mov    %rcx,%rax
    4ccb:	48 89 c2             	mov    %rax,%rdx
    4cce:	48 c1 ea 03          	shr    $0x3,%rdx
    4cd2:	48 81 c2 00 80 ff 7f 	add    $0x7fff8000,%rdx
    4cd9:	0f b6 12             	movzbl (%rdx),%edx
    4cdc:	84 d2                	test   %dl,%dl
    4cde:	40 0f 95 c6          	setne  %sil
    4ce2:	48 89 c7             	mov    %rax,%rdi
    4ce5:	83 e7 07             	and    $0x7,%edi
    4ce8:	40 38 d7             	cmp    %dl,%dil
    4ceb:	0f 9d c2             	setge  %dl
    4cee:	21 f2                	and    %esi,%edx
    4cf0:	84 d2                	test   %dl,%dl
    4cf2:	74 08                	je     4cfc <jstring_compare_raw+0xef>
    4cf4:	48 89 c7             	mov    %rax,%rdi
    4cf7:	e8 94 f4 ff ff       	call   4190 <__asan_report_load1@plt>
    4cfc:	0f b6 31             	movzbl (%rcx),%esi
    4cff:	8b 55 fc             	mov    -0x4(%rbp),%edx
    4d02:	48 8b 45 e0          	mov    -0x20(%rbp),%rax
    4d06:	48 8d 0c 02          	lea    (%rdx,%rax,1),%rcx
    4d0a:	48 89 c8             	mov    %rcx,%rax
    4d0d:	48 89 c2             	mov    %rax,%rdx
    4d10:	48 c1 ea 03          	shr    $0x3,%rdx
    4d14:	48 81 c2 00 80 ff 7f 	add    $0x7fff8000,%rdx
    4d1b:	0f b6 12             	movzbl (%rdx),%edx
    4d1e:	84 d2                	test   %dl,%dl
    4d20:	40 0f 95 c7          	setne  %dil
    4d24:	49 89 c0             	mov    %rax,%r8
    4d27:	41 83 e0 07          	and    $0x7,%r8d
    4d2b:	41 38 d0             	cmp    %dl,%r8b
    4d2e:	0f 9d c2             	setge  %dl
    4d31:	21 fa                	and    %edi,%edx
    4d33:	84 d2                	test   %dl,%dl
    4d35:	74 08                	je     4d3f <jstring_compare_raw+0x132>
    4d37:	48 89 c7             	mov    %rax,%rdi
    4d3a:	e8 51 f4 ff ff       	call   4190 <__asan_report_load1@plt>
    4d3f:	0f b6 01             	movzbl (%rcx),%eax
    4d42:	40 38 c6             	cmp    %al,%sil
    4d45:	7e 0a                	jle    4d51 <jstring_compare_raw+0x144>
    4d47:	b8 01 00 00 00       	mov    $0x1,%eax
    4d4c:	e9 be 01 00 00       	jmp    4f0f <jstring_compare_raw+0x302>
    4d51:	83 45 fc 01          	addl   $0x1,-0x4(%rbp)
    4d55:	8b 55 fc             	mov    -0x4(%rbp),%edx
    4d58:	48 8b 45 e8          	mov    -0x18(%rbp),%rax
    4d5c:	48 8d 0c 02          	lea    (%rdx,%rax,1),%rcx
    4d60:	48 89 c8             	mov    %rcx,%rax
    4d63:	48 89 c2             	mov    %rax,%rdx
    4d66:	48 c1 ea 03          	shr    $0x3,%rdx
    4d6a:	48 81 c2 00 80 ff 7f 	add    $0x7fff8000,%rdx
    4d71:	0f b6 12             	movzbl (%rdx),%edx
    4d74:	84 d2                	test   %dl,%dl
    4d76:	40 0f 95 c6          	setne  %sil
    4d7a:	48 89 c7             	mov    %rax,%rdi
    4d7d:	83 e7 07             	and    $0x7,%edi
    4d80:	40 38 d7             	cmp    %dl,%dil
    4d83:	0f 9d c2             	setge  %dl
    4d86:	21 f2                	and    %esi,%edx
    4d88:	84 d2                	test   %dl,%dl
    4d8a:	74 08                	je     4d94 <jstring_compare_raw+0x187>
    4d8c:	48 89 c7             	mov    %rax,%rdi
    4d8f:	e8 fc f3 ff ff       	call   4190 <__asan_report_load1@plt>
    4d94:	0f b6 01             	movzbl (%rcx),%eax
    4d97:	84 c0                	test   %al,%al
    4d99:	74 4a                	je     4de5 <jstring_compare_raw+0x1d8>
    4d9b:	8b 55 fc             	mov    -0x4(%rbp),%edx
    4d9e:	48 8b 45 e0          	mov    -0x20(%rbp),%rax
    4da2:	48 8d 0c 02          	lea    (%rdx,%rax,1),%rcx
    4da6:	48 89 c8             	mov    %rcx,%rax
    4da9:	48 89 c2             	mov    %rax,%rdx
    4dac:	48 c1 ea 03          	shr    $0x3,%rdx
    4db0:	48 81 c2 00 80 ff 7f 	add    $0x7fff8000,%rdx
    4db7:	0f b6 12             	movzbl (%rdx),%edx
    4dba:	84 d2                	test   %dl,%dl
    4dbc:	40 0f 95 c6          	setne  %sil
    4dc0:	48 89 c7             	mov    %rax,%rdi
    4dc3:	83 e7 07             	and    $0x7,%edi
    4dc6:	40 38 d7             	cmp    %dl,%dil
    4dc9:	0f 9d c2             	setge  %dl
    4dcc:	21 f2                	and    %esi,%edx
    4dce:	84 d2                	test   %dl,%dl
    4dd0:	74 08                	je     4dda <jstring_compare_raw+0x1cd>
    4dd2:	48 89 c7             	mov    %rax,%rdi
    4dd5:	e8 b6 f3 ff ff       	call   4190 <__asan_report_load1@plt>
    4dda:	0f b6 01             	movzbl (%rcx),%eax
    4ddd:	84 c0                	test   %al,%al
    4ddf:	0f 85 44 fe ff ff    	jne    4c29 <jstring_compare_raw+0x1c>
    4de5:	8b 55 fc             	mov    -0x4(%rbp),%edx
    4de8:	48 8b 45 e8          	mov    -0x18(%rbp),%rax
    4dec:	48 8d 0c 02          	lea    (%rdx,%rax,1),%rcx
    4df0:	48 89 c8             	mov    %rcx,%rax
    4df3:	48 89 c2             	mov    %rax,%rdx
    4df6:	48 c1 ea 03          	shr    $0x3,%rdx
    4dfa:	48 81 c2 00 80 ff 7f 	add    $0x7fff8000,%rdx
    4e01:	0f b6 12             	movzbl (%rdx),%edx
    4e04:	84 d2                	test   %dl,%dl
    4e06:	40 0f 95 c6          	setne  %sil
    4e0a:	48 89 c7             	mov    %rax,%rdi
    4e0d:	83 e7 07             	and    $0x7,%edi
    4e10:	40 38 d7             	cmp    %dl,%dil
    4e13:	0f 9d c2             	setge  %dl
    4e16:	21 f2                	and    %esi,%edx
    4e18:	84 d2                	test   %dl,%dl
    4e1a:	74 08                	je     4e24 <jstring_compare_raw+0x217>
    4e1c:	48 89 c7             	mov    %rax,%rdi
    4e1f:	e8 6c f3 ff ff       	call   4190 <__asan_report_load1@plt>
    4e24:	0f b6 31             	movzbl (%rcx),%esi
    4e27:	8b 55 fc             	mov    -0x4(%rbp),%edx
    4e2a:	48 8b 45 e0          	mov    -0x20(%rbp),%rax
    4e2e:	48 8d 0c 02          	lea    (%rdx,%rax,1),%rcx
    4e32:	48 89 c8             	mov    %rcx,%rax
    4e35:	48 89 c2             	mov    %rax,%rdx
    4e38:	48 c1 ea 03          	shr    $0x3,%rdx
    4e3c:	48 81 c2 00 80 ff 7f 	add    $0x7fff8000,%rdx
    4e43:	0f b6 12             	movzbl (%rdx),%edx
    4e46:	84 d2                	test   %dl,%dl
    4e48:	40 0f 95 c7          	setne  %dil
    4e4c:	49 89 c0             	mov    %rax,%r8
    4e4f:	41 83 e0 07          	and    $0x7,%r8d
    4e53:	41 38 d0             	cmp    %dl,%r8b
    4e56:	0f 9d c2             	setge  %dl
    4e59:	21 fa                	and    %edi,%edx
    4e5b:	84 d2                	test   %dl,%dl
    4e5d:	74 08                	je     4e67 <jstring_compare_raw+0x25a>
    4e5f:	48 89 c7             	mov    %rax,%rdi
    4e62:	e8 29 f3 ff ff       	call   4190 <__asan_report_load1@plt>
    4e67:	0f b6 01             	movzbl (%rcx),%eax
    4e6a:	40 38 c6             	cmp    %al,%sil
    4e6d:	7d 0a                	jge    4e79 <jstring_compare_raw+0x26c>
    4e6f:	b8 ff ff ff ff       	mov    $0xffffffff,%eax
    4e74:	e9 96 00 00 00       	jmp    4f0f <jstring_compare_raw+0x302>
    4e79:	8b 55 fc             	mov    -0x4(%rbp),%edx
    4e7c:	48 8b 45 e8          	mov    -0x18(%rbp),%rax
    4e80:	48 8d 0c 02          	lea    (%rdx,%rax,1),%rcx
    4e84:	48 89 c8             	mov    %rcx,%rax
    4e87:	48 89 c2             	mov    %rax,%rdx
    4e8a:	48 c1 ea 03          	shr    $0x3,%rdx
    4e8e:	48 81 c2 00 80 ff 7f 	add    $0x7fff8000,%rdx
    4e95:	0f b6 12             	movzbl (%rdx),%edx
    4e98:	84 d2                	test   %dl,%dl
    4e9a:	40 0f 95 c6          	setne  %sil
    4e9e:	48 89 c7             	mov    %rax,%rdi
    4ea1:	83 e7 07             	and    $0x7,%edi
    4ea4:	40 38 d7             	cmp    %dl,%dil
    4ea7:	0f 9d c2             	setge  %dl
    4eaa:	21 f2                	and    %esi,%edx
    4eac:	84 d2                	test   %dl,%dl
    4eae:	74 08                	je     4eb8 <jstring_compare_raw+0x2ab>
    4eb0:	48 89 c7             	mov    %rax,%rdi
    4eb3:	e8 d8 f2 ff ff       	call   4190 <__asan_report_load1@plt>
    4eb8:	0f b6 31             	movzbl (%rcx),%esi
    4ebb:	8b 55 fc             	mov    -0x4(%rbp),%edx
    4ebe:	48 8b 45 e0          	mov    -0x20(%rbp),%rax
    4ec2:	48 8d 0c 02          	lea    (%rdx,%rax,1),%rcx
    4ec6:	48 89 c8             	mov    %rcx,%rax
    4ec9:	48 89 c2             	mov    %rax,%rdx
    4ecc:	48 c1 ea 03          	shr    $0x3,%rdx
    4ed0:	48 81 c2 00 80 ff 7f 	add    $0x7fff8000,%rdx
    4ed7:	0f b6 12             	movzbl (%rdx),%edx
    4eda:	84 d2                	test   %dl,%dl
    4edc:	40 0f 95 c7          	setne  %dil
    4ee0:	49 89 c0             	mov    %rax,%r8
    4ee3:	41 83 e0 07          	and    $0x7,%r8d
    4ee7:	41 38 d0             	cmp    %dl,%r8b
    4eea:	0f 9d c2             	setge  %dl
    4eed:	21 fa                	and    %edi,%edx
    4eef:	84 d2                	test   %dl,%dl
    4ef1:	74 08                	je     4efb <jstring_compare_raw+0x2ee>
    4ef3:	48 89 c7             	mov    %rax,%rdi
    4ef6:	e8 95 f2 ff ff       	call   4190 <__asan_report_load1@plt>
    4efb:	0f b6 01             	movzbl (%rcx),%eax
    4efe:	40 38 c6             	cmp    %al,%sil
    4f01:	7e 07                	jle    4f0a <jstring_compare_raw+0x2fd>
    4f03:	b8 01 00 00 00       	mov    $0x1,%eax
    4f08:	eb 05                	jmp    4f0f <jstring_compare_raw+0x302>
    4f0a:	b8 00 00 00 00       	mov    $0x0,%eax
    4f0f:	c9                   	leave
    4f10:	c3                   	ret

0000000000004f11 <jstring_compare_jstring>:
    4f11:	55                   	push   %rbp
    4f12:	48 89 e5             	mov    %rsp,%rbp
    4f15:	41 54                	push   %r12
    4f17:	53                   	push   %rbx
    4f18:	48 81 ec c0 00 00 00 	sub    $0xc0,%rsp
    4f1f:	48 89 f8             	mov    %rdi,%rax
    4f22:	49 89 f0             	mov    %rsi,%r8
    4f25:	48 89 c6             	mov    %rax,%rsi
    4f28:	bf 00 00 00 00       	mov    $0x0,%edi
    4f2d:	4c 89 c7             	mov    %r8,%rdi
    4f30:	48 89 b5 40 ff ff ff 	mov    %rsi,-0xc0(%rbp)
    4f37:	48 89 bd 48 ff ff ff 	mov    %rdi,-0xb8(%rbp)
    4f3e:	48 89 95 30 ff ff ff 	mov    %rdx,-0xd0(%rbp)
    4f45:	48 89 8d 38 ff ff ff 	mov    %rcx,-0xc8(%rbp)
    4f4c:	48 8d 9d 70 ff ff ff 	lea    -0x90(%rbp),%rbx
    4f53:	49 89 dc             	mov    %rbx,%r12
    4f56:	83 3d 03 63 01 00 00 	cmpl   $0x0,0x16303(%rip)        # 1b260 <__asan_option_detect_stack_use_after_return@@Base>
    4f5d:	74 12                	je     4f71 <jstring_compare_jstring+0x60>
    4f5f:	bf 60 00 00 00       	mov    $0x60,%edi
    4f64:	e8 77 f1 ff ff       	call   40e0 <__asan_stack_malloc_1@plt>
    4f69:	48 85 c0             	test   %rax,%rax
    4f6c:	74 03                	je     4f71 <jstring_compare_jstring+0x60>
    4f6e:	48 89 c3             	mov    %rax,%rbx
    4f71:	48 8d 83 80 00 00 00 	lea    0x80(%rbx),%rax
    4f78:	48 c7 03 b3 8a b5 41 	movq   $0x41b58ab3,(%rbx)
    4f7f:	48 8d 15 fa e6 00 00 	lea    0xe6fa(%rip),%rdx        # 13680 <_IO_stdin_used+0x680>
    4f86:	48 89 53 08          	mov    %rdx,0x8(%rbx)
    4f8a:	48 8d 15 80 ff ff ff 	lea    -0x80(%rip),%rdx        # 4f11 <jstring_compare_jstring>
    4f91:	48 89 53 10          	mov    %rdx,0x10(%rbx)
    4f95:	48 89 da             	mov    %rbx,%rdx
    4f98:	48 c1 ea 03          	shr    $0x3,%rdx
    4f9c:	c7 82 00 80 ff 7f f1 	movl   $0xf1f1f1f1,0x7fff8000(%rdx)
    4fa3:	f1 f1 f1 
    4fa6:	c7 82 04 80 ff 7f 00 	movl   $0xf2f20000,0x7fff8004(%rdx)
    4fad:	00 f2 f2 
    4fb0:	c7 82 08 80 ff 7f 00 	movl   $0xf3f30000,0x7fff8008(%rdx)
    4fb7:	00 f3 f3 
    4fba:	64 48 8b 0c 25 28 00 	mov    %fs:0x28,%rcx
    4fc1:	00 00 
    4fc3:	48 89 4d e8          	mov    %rcx,-0x18(%rbp)
    4fc7:	31 c9                	xor    %ecx,%ecx
    4fc9:	48 8b b5 40 ff ff ff 	mov    -0xc0(%rbp),%rsi
    4fd0:	48 8b bd 48 ff ff ff 	mov    -0xb8(%rbp),%rdi
    4fd7:	48 89 70 a0          	mov    %rsi,-0x60(%rax)
    4fdb:	48 89 78 a8          	mov    %rdi,-0x58(%rax)
    4fdf:	48 8b b5 30 ff ff ff 	mov    -0xd0(%rbp),%rsi
    4fe6:	48 8b bd 38 ff ff ff 	mov    -0xc8(%rbp),%rdi
    4fed:	48 89 70 c0          	mov    %rsi,-0x40(%rax)
    4ff1:	48 89 78 c8          	mov    %rdi,-0x38(%rax)
    4ff5:	48 8d 48 a0          	lea    -0x60(%rax),%rcx
    4ff9:	48 89 ce             	mov    %rcx,%rsi
    4ffc:	48 89 f1             	mov    %rsi,%rcx
    4fff:	48 c1 e9 03          	shr    $0x3,%rcx
    5003:	48 81 c1 00 80 ff 7f 	add    $0x7fff8000,%rcx
    500a:	0f b6 09             	movzbl (%rcx),%ecx
    500d:	84 c9                	test   %cl,%cl
    500f:	40 0f 95 c7          	setne  %dil
    5013:	80 f9 03             	cmp    $0x3,%cl
    5016:	0f 9e c1             	setle  %cl
    5019:	21 f9                	and    %edi,%ecx
    501b:	84 c9                	test   %cl,%cl
    501d:	74 08                	je     5027 <jstring_compare_jstring+0x116>
    501f:	48 89 f7             	mov    %rsi,%rdi
    5022:	e8 c9 f0 ff ff       	call   40f0 <__asan_report_load4@plt>
    5027:	8b 78 a0             	mov    -0x60(%rax),%edi
    502a:	48 8d 48 c0          	lea    -0x40(%rax),%rcx
    502e:	48 89 ce             	mov    %rcx,%rsi
    5031:	48 89 f1             	mov    %rsi,%rcx
    5034:	48 c1 e9 03          	shr    $0x3,%rcx
    5038:	48 81 c1 00 80 ff 7f 	add    $0x7fff8000,%rcx
    503f:	0f b6 09             	movzbl (%rcx),%ecx
    5042:	84 c9                	test   %cl,%cl
    5044:	41 0f 95 c0          	setne  %r8b
    5048:	80 f9 03             	cmp    $0x3,%cl
    504b:	0f 9e c1             	setle  %cl
    504e:	44 21 c1             	and    %r8d,%ecx
    5051:	84 c9                	test   %cl,%cl
    5053:	74 08                	je     505d <jstring_compare_jstring+0x14c>
    5055:	48 89 f7             	mov    %rsi,%rdi
    5058:	e8 93 f0 ff ff       	call   40f0 <__asan_report_load4@plt>
    505d:	8b 48 c0             	mov    -0x40(%rax),%ecx
    5060:	39 cf                	cmp    %ecx,%edi
    5062:	73 0a                	jae    506e <jstring_compare_jstring+0x15d>
    5064:	b8 ff ff ff ff       	mov    $0xffffffff,%eax
    5069:	e9 8f 02 00 00       	jmp    52fd <jstring_compare_jstring+0x3ec>
    506e:	48 8d 48 a0          	lea    -0x60(%rax),%rcx
    5072:	48 89 ce             	mov    %rcx,%rsi
    5075:	48 89 f1             	mov    %rsi,%rcx
    5078:	48 c1 e9 03          	shr    $0x3,%rcx
    507c:	48 81 c1 00 80 ff 7f 	add    $0x7fff8000,%rcx
    5083:	0f b6 09             	movzbl (%rcx),%ecx
    5086:	84 c9                	test   %cl,%cl
    5088:	40 0f 95 c7          	setne  %dil
    508c:	80 f9 03             	cmp    $0x3,%cl
    508f:	0f 9e c1             	setle  %cl
    5092:	21 f9                	and    %edi,%ecx
    5094:	84 c9                	test   %cl,%cl
    5096:	74 08                	je     50a0 <jstring_compare_jstring+0x18f>
    5098:	48 89 f7             	mov    %rsi,%rdi
    509b:	e8 50 f0 ff ff       	call   40f0 <__asan_report_load4@plt>
    50a0:	8b 78 a0             	mov    -0x60(%rax),%edi
    50a3:	48 8d 48 c0          	lea    -0x40(%rax),%rcx
    50a7:	48 89 ce             	mov    %rcx,%rsi
    50aa:	48 89 f1             	mov    %rsi,%rcx
    50ad:	48 c1 e9 03          	shr    $0x3,%rcx
    50b1:	48 81 c1 00 80 ff 7f 	add    $0x7fff8000,%rcx
    50b8:	0f b6 09             	movzbl (%rcx),%ecx
    50bb:	84 c9                	test   %cl,%cl
    50bd:	41 0f 95 c0          	setne  %r8b
    50c1:	80 f9 03             	cmp    $0x3,%cl
    50c4:	0f 9e c1             	setle  %cl
    50c7:	44 21 c1             	and    %r8d,%ecx
    50ca:	84 c9                	test   %cl,%cl
    50cc:	74 08                	je     50d6 <jstring_compare_jstring+0x1c5>
    50ce:	48 89 f7             	mov    %rsi,%rdi
    50d1:	e8 1a f0 ff ff       	call   40f0 <__asan_report_load4@plt>
    50d6:	8b 48 c0             	mov    -0x40(%rax),%ecx
    50d9:	39 f9                	cmp    %edi,%ecx
    50db:	73 0a                	jae    50e7 <jstring_compare_jstring+0x1d6>
    50dd:	b8 01 00 00 00       	mov    $0x1,%eax
    50e2:	e9 16 02 00 00       	jmp    52fd <jstring_compare_jstring+0x3ec>
    50e7:	48 8d 48 a0          	lea    -0x60(%rax),%rcx
    50eb:	48 83 c1 08          	add    $0x8,%rcx
    50ef:	48 89 ce             	mov    %rcx,%rsi
    50f2:	48 c1 ee 03          	shr    $0x3,%rsi
    50f6:	48 81 c6 00 80 ff 7f 	add    $0x7fff8000,%rsi
    50fd:	0f b6 36             	movzbl (%rsi),%esi
    5100:	40 84 f6             	test   %sil,%sil
    5103:	74 08                	je     510d <jstring_compare_jstring+0x1fc>
    5105:	48 89 cf             	mov    %rcx,%rdi
    5108:	e8 b3 f0 ff ff       	call   41c0 <__asan_report_load8@plt>
    510d:	48 8b 48 a8          	mov    -0x58(%rax),%rcx
    5111:	48 89 8d 60 ff ff ff 	mov    %rcx,-0xa0(%rbp)
    5118:	48 8d 48 c0          	lea    -0x40(%rax),%rcx
    511c:	48 83 c1 08          	add    $0x8,%rcx
    5120:	48 89 ce             	mov    %rcx,%rsi
    5123:	48 c1 ee 03          	shr    $0x3,%rsi
    5127:	48 81 c6 00 80 ff 7f 	add    $0x7fff8000,%rsi
    512e:	0f b6 36             	movzbl (%rsi),%esi
    5131:	40 84 f6             	test   %sil,%sil
    5134:	74 08                	je     513e <jstring_compare_jstring+0x22d>
    5136:	48 89 cf             	mov    %rcx,%rdi
    5139:	e8 82 f0 ff ff       	call   41c0 <__asan_report_load8@plt>
    513e:	48 8b 48 c8          	mov    -0x38(%rax),%rcx
    5142:	48 89 8d 68 ff ff ff 	mov    %rcx,-0x98(%rbp)
    5149:	c7 85 5c ff ff ff 00 	movl   $0x0,-0xa4(%rbp)
    5150:	00 00 00 
    5153:	e9 5f 01 00 00       	jmp    52b7 <jstring_compare_jstring+0x3a6>
    5158:	8b b5 5c ff ff ff    	mov    -0xa4(%rbp),%esi
    515e:	48 8b 8d 60 ff ff ff 	mov    -0xa0(%rbp),%rcx
    5165:	48 8d 3c 0e          	lea    (%rsi,%rcx,1),%rdi
    5169:	48 89 f9             	mov    %rdi,%rcx
    516c:	48 89 ce             	mov    %rcx,%rsi
    516f:	48 c1 ee 03          	shr    $0x3,%rsi
    5173:	48 81 c6 00 80 ff 7f 	add    $0x7fff8000,%rsi
    517a:	0f b6 36             	movzbl (%rsi),%esi
    517d:	40 84 f6             	test   %sil,%sil
    5180:	41 0f 95 c0          	setne  %r8b
    5184:	49 89 c9             	mov    %rcx,%r9
    5187:	41 83 e1 07          	and    $0x7,%r9d
    518b:	41 38 f1             	cmp    %sil,%r9b
    518e:	40 0f 9d c6          	setge  %sil
    5192:	44 21 c6             	and    %r8d,%esi
    5195:	40 84 f6             	test   %sil,%sil
    5198:	74 08                	je     51a2 <jstring_compare_jstring+0x291>
    519a:	48 89 cf             	mov    %rcx,%rdi
    519d:	e8 ee ef ff ff       	call   4190 <__asan_report_load1@plt>
    51a2:	44 0f b6 07          	movzbl (%rdi),%r8d
    51a6:	8b b5 5c ff ff ff    	mov    -0xa4(%rbp),%esi
    51ac:	48 8b 8d 68 ff ff ff 	mov    -0x98(%rbp),%rcx
    51b3:	48 8d 3c 0e          	lea    (%rsi,%rcx,1),%rdi
    51b7:	48 89 f9             	mov    %rdi,%rcx
    51ba:	48 89 ce             	mov    %rcx,%rsi
    51bd:	48 c1 ee 03          	shr    $0x3,%rsi
    51c1:	48 81 c6 00 80 ff 7f 	add    $0x7fff8000,%rsi
    51c8:	0f b6 36             	movzbl (%rsi),%esi
    51cb:	40 84 f6             	test   %sil,%sil
    51ce:	41 0f 95 c1          	setne  %r9b
    51d2:	49 89 ca             	mov    %rcx,%r10
    51d5:	41 83 e2 07          	and    $0x7,%r10d
    51d9:	41 38 f2             	cmp    %sil,%r10b
    51dc:	40 0f 9d c6          	setge  %sil
    51e0:	44 21 ce             	and    %r9d,%esi
    51e3:	40 84 f6             	test   %sil,%sil
    51e6:	74 08                	je     51f0 <jstring_compare_jstring+0x2df>
    51e8:	48 89 cf             	mov    %rcx,%rdi
    51eb:	e8 a0 ef ff ff       	call   4190 <__asan_report_load1@plt>
    51f0:	0f b6 0f             	movzbl (%rdi),%ecx
    51f3:	41 38 c8             	cmp    %cl,%r8b
    51f6:	7d 0a                	jge    5202 <jstring_compare_jstring+0x2f1>
    51f8:	b8 ff ff ff ff       	mov    $0xffffffff,%eax
    51fd:	e9 fb 00 00 00       	jmp    52fd <jstring_compare_jstring+0x3ec>
    5202:	8b b5 5c ff ff ff    	mov    -0xa4(%rbp),%esi
    5208:	48 8b 8d 60 ff ff ff 	mov    -0xa0(%rbp),%rcx
    520f:	48 8d 3c 0e          	lea    (%rsi,%rcx,1),%rdi
    5213:	48 89 f9             	mov    %rdi,%rcx
    5216:	48 89 ce             	mov    %rcx,%rsi
    5219:	48 c1 ee 03          	shr    $0x3,%rsi
    521d:	48 81 c6 00 80 ff 7f 	add    $0x7fff8000,%rsi
    5224:	0f b6 36             	movzbl (%rsi),%esi
    5227:	40 84 f6             	test   %sil,%sil
    522a:	41 0f 95 c0          	setne  %r8b
    522e:	49 89 c9             	mov    %rcx,%r9
    5231:	41 83 e1 07          	and    $0x7,%r9d
    5235:	41 38 f1             	cmp    %sil,%r9b
    5238:	40 0f 9d c6          	setge  %sil
    523c:	44 21 c6             	and    %r8d,%esi
    523f:	40 84 f6             	test   %sil,%sil
    5242:	74 08                	je     524c <jstring_compare_jstring+0x33b>
    5244:	48 89 cf             	mov    %rcx,%rdi
    5247:	e8 44 ef ff ff       	call   4190 <__asan_report_load1@plt>
    524c:	44 0f b6 07          	movzbl (%rdi),%r8d
    5250:	8b b5 5c ff ff ff    	mov    -0xa4(%rbp),%esi
    5256:	48 8b 8d 68 ff ff ff 	mov    -0x98(%rbp),%rcx
    525d:	48 8d 3c 0e          	lea    (%rsi,%rcx,1),%rdi
    5261:	48 89 f9             	mov    %rdi,%rcx
    5264:	48 89 ce             	mov    %rcx,%rsi
    5267:	48 c1 ee 03          	shr    $0x3,%rsi
    526b:	48 81 c6 00 80 ff 7f 	add    $0x7fff8000,%rsi
    5272:	0f b6 36             	movzbl (%rsi),%esi
    5275:	40 84 f6             	test   %sil,%sil
    5278:	41 0f 95 c1          	setne  %r9b
    527c:	49 89 ca             	mov    %rcx,%r10
    527f:	41 83 e2 07          	and    $0x7,%r10d
    5283:	41 38 f2             	cmp    %sil,%r10b
    5286:	40 0f 9d c6          	setge  %sil
    528a:	44 21 ce             	and    %r9d,%esi
    528d:	40 84 f6             	test   %sil,%sil
    5290:	74 08                	je     529a <jstring_compare_jstring+0x389>
    5292:	48 89 cf             	mov    %rcx,%rdi
    5295:	e8 f6 ee ff ff       	call   4190 <__asan_report_load1@plt>
    529a:	0f b6 0f             	movzbl (%rdi),%ecx
    529d:	41 38 c8             	cmp    %cl,%r8b
    52a0:	7e 07                	jle    52a9 <jstring_compare_jstring+0x398>
    52a2:	b8 01 00 00 00       	mov    $0x1,%eax
    52a7:	eb 54                	jmp    52fd <jstring_compare_jstring+0x3ec>
    52a9:	83 85 5c ff ff ff 01 	addl   $0x1,-0xa4(%rbp)
    52b0:	83 85 5c ff ff ff 01 	addl   $0x1,-0xa4(%rbp)
    52b7:	48 8d 48 a0          	lea    -0x60(%rax),%rcx
    52bb:	48 89 ce             	mov    %rcx,%rsi
    52be:	48 89 f1             	mov    %rsi,%rcx
    52c1:	48 c1 e9 03          	shr    $0x3,%rcx
    52c5:	48 81 c1 00 80 ff 7f 	add    $0x7fff8000,%rcx
    52cc:	0f b6 09             	movzbl (%rcx),%ecx
    52cf:	84 c9                	test   %cl,%cl
    52d1:	40 0f 95 c7          	setne  %dil
    52d5:	80 f9 03             	cmp    $0x3,%cl
    52d8:	0f 9e c1             	setle  %cl
    52db:	21 f9                	and    %edi,%ecx
    52dd:	84 c9                	test   %cl,%cl
    52df:	74 08                	je     52e9 <jstring_compare_jstring+0x3d8>
    52e1:	48 89 f7             	mov    %rsi,%rdi
    52e4:	e8 07 ee ff ff       	call   40f0 <__asan_report_load4@plt>
    52e9:	8b 48 a0             	mov    -0x60(%rax),%ecx
    52ec:	39 8d 5c ff ff ff    	cmp    %ecx,-0xa4(%rbp)
    52f2:	0f 82 60 fe ff ff    	jb     5158 <jstring_compare_jstring+0x247>
    52f8:	b8 00 00 00 00       	mov    $0x0,%eax
    52fd:	89 c1                	mov    %eax,%ecx
    52ff:	49 39 dc             	cmp    %rbx,%r12
    5302:	74 2b                	je     532f <jstring_compare_jstring+0x41e>
    5304:	48 c7 03 0e 36 e0 45 	movq   $0x45e0360e,(%rbx)
    530b:	48 b8 f5 f5 f5 f5 f5 	movabs $0xf5f5f5f5f5f5f5f5,%rax
    5312:	f5 f5 f5 
    5315:	48 89 82 00 80 ff 7f 	mov    %rax,0x7fff8000(%rdx)
    531c:	c7 82 08 80 ff 7f f5 	movl   $0xf5f5f5f5,0x7fff8008(%rdx)
    5323:	f5 f5 f5 
    5326:	48 8b 43 78          	mov    0x78(%rbx),%rax
    532a:	c6 00 00             	movb   $0x0,(%rax)
    532d:	eb 15                	jmp    5344 <jstring_compare_jstring+0x433>
    532f:	48 c7 82 00 80 ff 7f 	movq   $0x0,0x7fff8000(%rdx)
    5336:	00 00 00 00 
    533a:	c7 82 08 80 ff 7f 00 	movl   $0x0,0x7fff8008(%rdx)
    5341:	00 00 00 
    5344:	48 8b 45 e8          	mov    -0x18(%rbp),%rax
    5348:	64 48 2b 04 25 28 00 	sub    %fs:0x28,%rax
    534f:	00 00 
    5351:	74 05                	je     5358 <jstring_compare_jstring+0x447>
    5353:	e8 08 ee ff ff       	call   4160 <__stack_chk_fail@plt>
    5358:	89 c8                	mov    %ecx,%eax
    535a:	48 81 c4 c0 00 00 00 	add    $0xc0,%rsp
    5361:	5b                   	pop    %rbx
    5362:	41 5c                	pop    %r12
    5364:	5d                   	pop    %rbp
    5365:	c3                   	ret

0000000000005366 <jstring_compare_jstring_and_raw>:
    5366:	55                   	push   %rbp
    5367:	48 89 e5             	mov    %rsp,%rbp
    536a:	41 57                	push   %r15
    536c:	41 56                	push   %r14
    536e:	41 55                	push   %r13
    5370:	41 54                	push   %r12
    5372:	53                   	push   %rbx
    5373:	48 81 ec 98 00 00 00 	sub    $0x98,%rsp
    537a:	48 89 f8             	mov    %rdi,%rax
    537d:	48 89 c1             	mov    %rax,%rcx
    5380:	bb 00 00 00 00       	mov    $0x0,%ebx
    5385:	48 89 f3             	mov    %rsi,%rbx
    5388:	48 89 8d 50 ff ff ff 	mov    %rcx,-0xb0(%rbp)
    538f:	48 89 9d 58 ff ff ff 	mov    %rbx,-0xa8(%rbp)
    5396:	48 89 95 48 ff ff ff 	mov    %rdx,-0xb8(%rbp)
    539d:	4c 8d a5 70 ff ff ff 	lea    -0x90(%rbp),%r12
    53a4:	4d 89 e7             	mov    %r12,%r15
    53a7:	83 3d b2 5e 01 00 00 	cmpl   $0x0,0x15eb2(%rip)        # 1b260 <__asan_option_detect_stack_use_after_return@@Base>
    53ae:	74 12                	je     53c2 <jstring_compare_jstring_and_raw+0x5c>
    53b0:	bf 40 00 00 00       	mov    $0x40,%edi
    53b5:	e8 e6 ec ff ff       	call   40a0 <__asan_stack_malloc_0@plt>
    53ba:	48 85 c0             	test   %rax,%rax
    53bd:	74 03                	je     53c2 <jstring_compare_jstring_and_raw+0x5c>
    53bf:	49 89 c4             	mov    %rax,%r12
    53c2:	49 8d 44 24 60       	lea    0x60(%r12),%rax
    53c7:	48 89 c3             	mov    %rax,%rbx
    53ca:	49 c7 04 24 b3 8a b5 	movq   $0x41b58ab3,(%r12)
    53d1:	41 
    53d2:	48 8d 05 cf e2 00 00 	lea    0xe2cf(%rip),%rax        # 136a8 <_IO_stdin_used+0x6a8>
    53d9:	49 89 44 24 08       	mov    %rax,0x8(%r12)
    53de:	48 8d 05 81 ff ff ff 	lea    -0x7f(%rip),%rax        # 5366 <jstring_compare_jstring_and_raw>
    53e5:	49 89 44 24 10       	mov    %rax,0x10(%r12)
    53ea:	4d 89 e5             	mov    %r12,%r13
    53ed:	49 c1 ed 03          	shr    $0x3,%r13
    53f1:	41 c7 85 00 80 ff 7f 	movl   $0xf1f1f1f1,0x7fff8000(%r13)
    53f8:	f1 f1 f1 f1 
    53fc:	41 c7 85 04 80 ff 7f 	movl   $0xf3f30000,0x7fff8004(%r13)
    5403:	00 00 f3 f3 
    5407:	64 48 8b 04 25 28 00 	mov    %fs:0x28,%rax
    540e:	00 00 
    5410:	48 89 45 c8          	mov    %rax,-0x38(%rbp)
    5414:	31 c0                	xor    %eax,%eax
    5416:	48 8b 85 50 ff ff ff 	mov    -0xb0(%rbp),%rax
    541d:	48 8b 95 58 ff ff ff 	mov    -0xa8(%rbp),%rdx
    5424:	48 89 43 c0          	mov    %rax,-0x40(%rbx)
    5428:	48 89 53 c8          	mov    %rdx,-0x38(%rbx)
    542c:	48 8d 43 c0          	lea    -0x40(%rbx),%rax
    5430:	48 89 c2             	mov    %rax,%rdx
    5433:	48 89 d0             	mov    %rdx,%rax
    5436:	48 c1 e8 03          	shr    $0x3,%rax
    543a:	48 05 00 80 ff 7f    	add    $0x7fff8000,%rax
    5440:	0f b6 00             	movzbl (%rax),%eax
    5443:	84 c0                	test   %al,%al
    5445:	0f 95 c1             	setne  %cl
    5448:	3c 03                	cmp    $0x3,%al
    544a:	0f 9e c0             	setle  %al
    544d:	21 c8                	and    %ecx,%eax
    544f:	84 c0                	test   %al,%al
    5451:	74 08                	je     545b <jstring_compare_jstring_and_raw+0xf5>
    5453:	48 89 d7             	mov    %rdx,%rdi
    5456:	e8 95 ec ff ff       	call   40f0 <__asan_report_load4@plt>
    545b:	44 8b 73 c0          	mov    -0x40(%rbx),%r14d
    545f:	48 8b 85 48 ff ff ff 	mov    -0xb8(%rbp),%rax
    5466:	48 89 c7             	mov    %rax,%rdi
    5469:	e8 bd f6 ff ff       	call   4b2b <jstring_length>
    546e:	41 39 c6             	cmp    %eax,%r14d
    5471:	73 0a                	jae    547d <jstring_compare_jstring_and_raw+0x117>
    5473:	b8 ff ff ff ff       	mov    $0xffffffff,%eax
    5478:	e9 2b 02 00 00       	jmp    56a8 <jstring_compare_jstring_and_raw+0x342>
    547d:	48 8d 43 c0          	lea    -0x40(%rbx),%rax
    5481:	48 89 c2             	mov    %rax,%rdx
    5484:	48 89 d0             	mov    %rdx,%rax
    5487:	48 c1 e8 03          	shr    $0x3,%rax
    548b:	48 05 00 80 ff 7f    	add    $0x7fff8000,%rax
    5491:	0f b6 00             	movzbl (%rax),%eax
    5494:	84 c0                	test   %al,%al
    5496:	0f 95 c1             	setne  %cl
    5499:	3c 03                	cmp    $0x3,%al
    549b:	0f 9e c0             	setle  %al
    549e:	21 c8                	and    %ecx,%eax
    54a0:	84 c0                	test   %al,%al
    54a2:	74 08                	je     54ac <jstring_compare_jstring_and_raw+0x146>
    54a4:	48 89 d7             	mov    %rdx,%rdi
    54a7:	e8 44 ec ff ff       	call   40f0 <__asan_report_load4@plt>
    54ac:	44 8b 73 c0          	mov    -0x40(%rbx),%r14d
    54b0:	48 8b 85 48 ff ff ff 	mov    -0xb8(%rbp),%rax
    54b7:	48 89 c7             	mov    %rax,%rdi
    54ba:	e8 6c f6 ff ff       	call   4b2b <jstring_length>
    54bf:	44 39 f0             	cmp    %r14d,%eax
    54c2:	73 0a                	jae    54ce <jstring_compare_jstring_and_raw+0x168>
    54c4:	b8 01 00 00 00       	mov    $0x1,%eax
    54c9:	e9 da 01 00 00       	jmp    56a8 <jstring_compare_jstring_and_raw+0x342>
    54ce:	c7 85 6c ff ff ff 00 	movl   $0x0,-0x94(%rbp)
    54d5:	00 00 00 
    54d8:	e9 88 01 00 00       	jmp    5665 <jstring_compare_jstring_and_raw+0x2ff>
    54dd:	48 8d 43 c0          	lea    -0x40(%rbx),%rax
    54e1:	48 83 c0 08          	add    $0x8,%rax
    54e5:	48 89 c2             	mov    %rax,%rdx
    54e8:	48 c1 ea 03          	shr    $0x3,%rdx
    54ec:	48 81 c2 00 80 ff 7f 	add    $0x7fff8000,%rdx
    54f3:	0f b6 12             	movzbl (%rdx),%edx
    54f6:	84 d2                	test   %dl,%dl
    54f8:	74 08                	je     5502 <jstring_compare_jstring_and_raw+0x19c>
    54fa:	48 89 c7             	mov    %rax,%rdi
    54fd:	e8 be ec ff ff       	call   41c0 <__asan_report_load8@plt>
    5502:	48 8b 53 c8          	mov    -0x38(%rbx),%rdx
    5506:	8b 85 6c ff ff ff    	mov    -0x94(%rbp),%eax
    550c:	48 8d 0c 02          	lea    (%rdx,%rax,1),%rcx
    5510:	48 89 c8             	mov    %rcx,%rax
    5513:	48 89 c2             	mov    %rax,%rdx
    5516:	48 c1 ea 03          	shr    $0x3,%rdx
    551a:	48 81 c2 00 80 ff 7f 	add    $0x7fff8000,%rdx
    5521:	0f b6 12             	movzbl (%rdx),%edx
    5524:	84 d2                	test   %dl,%dl
    5526:	40 0f 95 c6          	setne  %sil
    552a:	48 89 c7             	mov    %rax,%rdi
    552d:	83 e7 07             	and    $0x7,%edi
    5530:	40 38 d7             	cmp    %dl,%dil
    5533:	0f 9d c2             	setge  %dl
    5536:	21 f2                	and    %esi,%edx
    5538:	84 d2                	test   %dl,%dl
    553a:	74 08                	je     5544 <jstring_compare_jstring_and_raw+0x1de>
    553c:	48 89 c7             	mov    %rax,%rdi
    553f:	e8 4c ec ff ff       	call   4190 <__asan_report_load1@plt>
    5544:	0f b6 31             	movzbl (%rcx),%esi
    5547:	8b 95 6c ff ff ff    	mov    -0x94(%rbp),%edx
    554d:	48 8b 85 48 ff ff ff 	mov    -0xb8(%rbp),%rax
    5554:	48 8d 0c 02          	lea    (%rdx,%rax,1),%rcx
    5558:	48 89 c8             	mov    %rcx,%rax
    555b:	48 89 c2             	mov    %rax,%rdx
    555e:	48 c1 ea 03          	shr    $0x3,%rdx
    5562:	48 81 c2 00 80 ff 7f 	add    $0x7fff8000,%rdx
    5569:	0f b6 12             	movzbl (%rdx),%edx
    556c:	84 d2                	test   %dl,%dl
    556e:	40 0f 95 c7          	setne  %dil
    5572:	49 89 c0             	mov    %rax,%r8
    5575:	41 83 e0 07          	and    $0x7,%r8d
    5579:	41 38 d0             	cmp    %dl,%r8b
    557c:	0f 9d c2             	setge  %dl
    557f:	21 fa                	and    %edi,%edx
    5581:	84 d2                	test   %dl,%dl
    5583:	74 08                	je     558d <jstring_compare_jstring_and_raw+0x227>
    5585:	48 89 c7             	mov    %rax,%rdi
    5588:	e8 03 ec ff ff       	call   4190 <__asan_report_load1@plt>
    558d:	0f b6 01             	movzbl (%rcx),%eax
    5590:	40 38 c6             	cmp    %al,%sil
    5593:	7d 0a                	jge    559f <jstring_compare_jstring_and_raw+0x239>
    5595:	b8 ff ff ff ff       	mov    $0xffffffff,%eax
    559a:	e9 09 01 00 00       	jmp    56a8 <jstring_compare_jstring_and_raw+0x342>
    559f:	48 8d 43 c0          	lea    -0x40(%rbx),%rax
    55a3:	48 83 c0 08          	add    $0x8,%rax
    55a7:	48 89 c2             	mov    %rax,%rdx
    55aa:	48 c1 ea 03          	shr    $0x3,%rdx
    55ae:	48 81 c2 00 80 ff 7f 	add    $0x7fff8000,%rdx
    55b5:	0f b6 12             	movzbl (%rdx),%edx
    55b8:	84 d2                	test   %dl,%dl
    55ba:	74 08                	je     55c4 <jstring_compare_jstring_and_raw+0x25e>
    55bc:	48 89 c7             	mov    %rax,%rdi
    55bf:	e8 fc eb ff ff       	call   41c0 <__asan_report_load8@plt>
    55c4:	48 8b 53 c8          	mov    -0x38(%rbx),%rdx
    55c8:	8b 85 6c ff ff ff    	mov    -0x94(%rbp),%eax
    55ce:	48 8d 0c 02          	lea    (%rdx,%rax,1),%rcx
    55d2:	48 89 c8             	mov    %rcx,%rax
    55d5:	48 89 c2             	mov    %rax,%rdx
    55d8:	48 c1 ea 03          	shr    $0x3,%rdx
    55dc:	48 81 c2 00 80 ff 7f 	add    $0x7fff8000,%rdx
    55e3:	0f b6 12             	movzbl (%rdx),%edx
    55e6:	84 d2                	test   %dl,%dl
    55e8:	40 0f 95 c6          	setne  %sil
    55ec:	48 89 c7             	mov    %rax,%rdi
    55ef:	83 e7 07             	and    $0x7,%edi
    55f2:	40 38 d7             	cmp    %dl,%dil
    55f5:	0f 9d c2             	setge  %dl
    55f8:	21 f2                	and    %esi,%edx
    55fa:	84 d2                	test   %dl,%dl
    55fc:	74 08                	je     5606 <jstring_compare_jstring_and_raw+0x2a0>
    55fe:	48 89 c7             	mov    %rax,%rdi
    5601:	e8 8a eb ff ff       	call   4190 <__asan_report_load1@plt>
    5606:	0f b6 31             	movzbl (%rcx),%esi
    5609:	8b 95 6c ff ff ff    	mov    -0x94(%rbp),%edx
    560f:	48 8b 85 48 ff ff ff 	mov    -0xb8(%rbp),%rax
    5616:	48 8d 0c 02          	lea    (%rdx,%rax,1),%rcx
    561a:	48 89 c8             	mov    %rcx,%rax
    561d:	48 89 c2             	mov    %rax,%rdx
    5620:	48 c1 ea 03          	shr    $0x3,%rdx
    5624:	48 81 c2 00 80 ff 7f 	add    $0x7fff8000,%rdx
    562b:	0f b6 12             	movzbl (%rdx),%edx
    562e:	84 d2                	test   %dl,%dl
    5630:	40 0f 95 c7          	setne  %dil
    5634:	49 89 c0             	mov    %rax,%r8
    5637:	41 83 e0 07          	and    $0x7,%r8d
    563b:	41 38 d0             	cmp    %dl,%r8b
    563e:	0f 9d c2             	setge  %dl
    5641:	21 fa                	and    %edi,%edx
    5643:	84 d2                	test   %dl,%dl
    5645:	74 08                	je     564f <jstring_compare_jstring_and_raw+0x2e9>
    5647:	48 89 c7             	mov    %rax,%rdi
    564a:	e8 41 eb ff ff       	call   4190 <__asan_report_load1@plt>
    564f:	0f b6 01             	movzbl (%rcx),%eax
    5652:	40 38 c6             	cmp    %al,%sil
    5655:	7e 07                	jle    565e <jstring_compare_jstring_and_raw+0x2f8>
    5657:	b8 01 00 00 00       	mov    $0x1,%eax
    565c:	eb 4a                	jmp    56a8 <jstring_compare_jstring_and_raw+0x342>
    565e:	83 85 6c ff ff ff 01 	addl   $0x1,-0x94(%rbp)
    5665:	48 8d 43 c0          	lea    -0x40(%rbx),%rax
    5669:	48 89 c2             	mov    %rax,%rdx
    566c:	48 89 d0             	mov    %rdx,%rax
    566f:	48 c1 e8 03          	shr    $0x3,%rax
    5673:	48 05 00 80 ff 7f    	add    $0x7fff8000,%rax
    5679:	0f b6 00             	movzbl (%rax),%eax
    567c:	84 c0                	test   %al,%al
    567e:	0f 95 c1             	setne  %cl
    5681:	3c 03                	cmp    $0x3,%al
    5683:	0f 9e c0             	setle  %al
    5686:	21 c8                	and    %ecx,%eax
    5688:	84 c0                	test   %al,%al
    568a:	74 08                	je     5694 <jstring_compare_jstring_and_raw+0x32e>
    568c:	48 89 d7             	mov    %rdx,%rdi
    568f:	e8 5c ea ff ff       	call   40f0 <__asan_report_load4@plt>
    5694:	8b 43 c0             	mov    -0x40(%rbx),%eax
    5697:	39 85 6c ff ff ff    	cmp    %eax,-0x94(%rbp)
    569d:	0f 82 3a fe ff ff    	jb     54dd <jstring_compare_jstring_and_raw+0x177>
    56a3:	b8 00 00 00 00       	mov    $0x0,%eax
    56a8:	89 c2                	mov    %eax,%edx
    56aa:	4d 39 e7             	cmp    %r12,%r15
    56ad:	74 23                	je     56d2 <jstring_compare_jstring_and_raw+0x36c>
    56af:	49 c7 04 24 0e 36 e0 	movq   $0x45e0360e,(%r12)
    56b6:	45 
    56b7:	48 b8 f5 f5 f5 f5 f5 	movabs $0xf5f5f5f5f5f5f5f5,%rax
    56be:	f5 f5 f5 
    56c1:	49 89 85 00 80 ff 7f 	mov    %rax,0x7fff8000(%r13)
    56c8:	49 8b 44 24 38       	mov    0x38(%r12),%rax
    56cd:	c6 00 00             	movb   $0x0,(%rax)
    56d0:	eb 0b                	jmp    56dd <jstring_compare_jstring_and_raw+0x377>
    56d2:	49 c7 85 00 80 ff 7f 	movq   $0x0,0x7fff8000(%r13)
    56d9:	00 00 00 00 
    56dd:	48 8b 45 c8          	mov    -0x38(%rbp),%rax
    56e1:	64 48 2b 04 25 28 00 	sub    %fs:0x28,%rax
    56e8:	00 00 
    56ea:	74 05                	je     56f1 <jstring_compare_jstring_and_raw+0x38b>
    56ec:	e8 6f ea ff ff       	call   4160 <__stack_chk_fail@plt>
    56f1:	89 d0                	mov    %edx,%eax
    56f3:	48 81 c4 98 00 00 00 	add    $0x98,%rsp
    56fa:	5b                   	pop    %rbx
    56fb:	41 5c                	pop    %r12
    56fd:	41 5d                	pop    %r13
    56ff:	41 5e                	pop    %r14
    5701:	41 5f                	pop    %r15
    5703:	5d                   	pop    %rbp
    5704:	c3                   	ret

0000000000005705 <jstring_equals_jstring_and_raw>:
    5705:	55                   	push   %rbp
    5706:	48 89 e5             	mov    %rsp,%rbp
    5709:	53                   	push   %rbx
    570a:	48 83 ec 28          	sub    $0x28,%rsp
    570e:	48 89 f8             	mov    %rdi,%rax
    5711:	48 89 c1             	mov    %rax,%rcx
    5714:	bb 00 00 00 00       	mov    $0x0,%ebx
    5719:	48 89 f3             	mov    %rsi,%rbx
    571c:	48 89 4d e0          	mov    %rcx,-0x20(%rbp)
    5720:	48 89 5d e8          	mov    %rbx,-0x18(%rbp)
    5724:	48 89 55 d8          	mov    %rdx,-0x28(%rbp)
    5728:	48 8b 55 d8          	mov    -0x28(%rbp),%rdx
    572c:	48 8b 4d e0          	mov    -0x20(%rbp),%rcx
    5730:	48 8b 45 e8          	mov    -0x18(%rbp),%rax
    5734:	48 89 cf             	mov    %rcx,%rdi
    5737:	48 89 c6             	mov    %rax,%rsi
    573a:	e8 27 fc ff ff       	call   5366 <jstring_compare_jstring_and_raw>
    573f:	85 c0                	test   %eax,%eax
    5741:	75 07                	jne    574a <jstring_equals_jstring_and_raw+0x45>
    5743:	b8 01 00 00 00       	mov    $0x1,%eax
    5748:	eb 05                	jmp    574f <jstring_equals_jstring_and_raw+0x4a>
    574a:	b8 00 00 00 00       	mov    $0x0,%eax
    574f:	48 8b 5d f8          	mov    -0x8(%rbp),%rbx
    5753:	c9                   	leave
    5754:	c3                   	ret

0000000000005755 <jstring_equals_raw>:
    5755:	55                   	push   %rbp
    5756:	48 89 e5             	mov    %rsp,%rbp
    5759:	48 83 ec 10          	sub    $0x10,%rsp
    575d:	48 89 7d f8          	mov    %rdi,-0x8(%rbp)
    5761:	48 89 75 f0          	mov    %rsi,-0x10(%rbp)
    5765:	48 8b 55 f0          	mov    -0x10(%rbp),%rdx
    5769:	48 8b 45 f8          	mov    -0x8(%rbp),%rax
    576d:	48 89 d6             	mov    %rdx,%rsi
    5770:	48 89 c7             	mov    %rax,%rdi
    5773:	e8 95 f4 ff ff       	call   4c0d <jstring_compare_raw>
    5778:	85 c0                	test   %eax,%eax
    577a:	75 07                	jne    5783 <jstring_equals_raw+0x2e>
    577c:	b8 01 00 00 00       	mov    $0x1,%eax
    5781:	eb 05                	jmp    5788 <jstring_equals_raw+0x33>
    5783:	b8 00 00 00 00       	mov    $0x0,%eax
    5788:	c9                   	leave
    5789:	c3                   	ret

000000000000578a <jstring_equals_jstring>:
    578a:	55                   	push   %rbp
    578b:	48 89 e5             	mov    %rsp,%rbp
    578e:	48 83 ec 20          	sub    $0x20,%rsp
    5792:	48 89 f8             	mov    %rdi,%rax
    5795:	49 89 f0             	mov    %rsi,%r8
    5798:	48 89 c6             	mov    %rax,%rsi
    579b:	bf 00 00 00 00       	mov    $0x0,%edi
    57a0:	4c 89 c7             	mov    %r8,%rdi
    57a3:	48 89 75 f0          	mov    %rsi,-0x10(%rbp)
    57a7:	48 89 7d f8          	mov    %rdi,-0x8(%rbp)
    57ab:	48 89 55 e0          	mov    %rdx,-0x20(%rbp)
    57af:	48 89 4d e8          	mov    %rcx,-0x18(%rbp)
    57b3:	48 8b 45 e0          	mov    -0x20(%rbp),%rax
    57b7:	48 8b 55 e8          	mov    -0x18(%rbp),%rdx
    57bb:	48 8b 7d f0          	mov    -0x10(%rbp),%rdi
    57bf:	48 8b 75 f8          	mov    -0x8(%rbp),%rsi
    57c3:	48 89 d1             	mov    %rdx,%rcx
    57c6:	48 89 c2             	mov    %rax,%rdx
    57c9:	e8 43 f7 ff ff       	call   4f11 <jstring_compare_jstring>
    57ce:	85 c0                	test   %eax,%eax
    57d0:	75 07                	jne    57d9 <jstring_equals_jstring+0x4f>
    57d2:	b8 01 00 00 00       	mov    $0x1,%eax
    57d7:	eb 05                	jmp    57de <jstring_equals_jstring+0x54>
    57d9:	b8 00 00 00 00       	mov    $0x0,%eax
    57de:	c9                   	leave
    57df:	c3                   	ret

00000000000057e0 <jstring_create_substring_temporary>:
    57e0:	55                   	push   %rbp
    57e1:	48 89 e5             	mov    %rsp,%rbp
    57e4:	41 56                	push   %r14
    57e6:	41 55                	push   %r13
    57e8:	41 54                	push   %r12
    57ea:	53                   	push   %rbx
    57eb:	48 81 ec b0 00 00 00 	sub    $0xb0,%rsp
    57f2:	48 89 f8             	mov    %rdi,%rax
    57f5:	49 89 f0             	mov    %rsi,%r8
    57f8:	48 89 c6             	mov    %rax,%rsi
    57fb:	bf 00 00 00 00       	mov    $0x0,%edi
    5800:	4c 89 c7             	mov    %r8,%rdi
    5803:	48 89 b5 40 ff ff ff 	mov    %rsi,-0xc0(%rbp)
    580a:	48 89 bd 48 ff ff ff 	mov    %rdi,-0xb8(%rbp)
    5811:	89 95 3c ff ff ff    	mov    %edx,-0xc4(%rbp)
    5817:	89 8d 38 ff ff ff    	mov    %ecx,-0xc8(%rbp)
    581d:	48 8d 9d 60 ff ff ff 	lea    -0xa0(%rbp),%rbx
    5824:	49 89 de             	mov    %rbx,%r14
    5827:	83 3d 32 5a 01 00 00 	cmpl   $0x0,0x15a32(%rip)        # 1b260 <__asan_option_detect_stack_use_after_return@@Base>
    582e:	74 12                	je     5842 <jstring_create_substring_temporary+0x62>
    5830:	bf 60 00 00 00       	mov    $0x60,%edi
    5835:	e8 a6 e8 ff ff       	call   40e0 <__asan_stack_malloc_1@plt>
    583a:	48 85 c0             	test   %rax,%rax
    583d:	74 03                	je     5842 <jstring_create_substring_temporary+0x62>
    583f:	48 89 c3             	mov    %rax,%rbx
    5842:	48 8d 83 80 00 00 00 	lea    0x80(%rbx),%rax
    5849:	49 89 c4             	mov    %rax,%r12
    584c:	48 c7 03 b3 8a b5 41 	movq   $0x41b58ab3,(%rbx)
    5853:	48 8d 05 66 de 00 00 	lea    0xde66(%rip),%rax        # 136c0 <_IO_stdin_used+0x6c0>
    585a:	48 89 43 08          	mov    %rax,0x8(%rbx)
    585e:	48 8d 05 7b ff ff ff 	lea    -0x85(%rip),%rax        # 57e0 <jstring_create_substring_temporary>
    5865:	48 89 43 10          	mov    %rax,0x10(%rbx)
    5869:	49 89 dd             	mov    %rbx,%r13
    586c:	49 c1 ed 03          	shr    $0x3,%r13
    5870:	41 c7 85 00 80 ff 7f 	movl   $0xf1f1f1f1,0x7fff8000(%r13)
    5877:	f1 f1 f1 f1 
    587b:	41 c7 85 04 80 ff 7f 	movl   $0xf2f20000,0x7fff8004(%r13)
    5882:	00 00 f2 f2 
    5886:	41 c7 85 08 80 ff 7f 	movl   $0xf3f30000,0x7fff8008(%r13)
    588d:	00 00 f3 f3 
    5891:	64 48 8b 04 25 28 00 	mov    %fs:0x28,%rax
    5898:	00 00 
    589a:	48 89 45 d8          	mov    %rax,-0x28(%rbp)
    589e:	31 c0                	xor    %eax,%eax
    58a0:	48 8b 85 40 ff ff ff 	mov    -0xc0(%rbp),%rax
    58a7:	48 8b 95 48 ff ff ff 	mov    -0xb8(%rbp),%rdx
    58ae:	49 89 44 24 c0       	mov    %rax,-0x40(%r12)
    58b3:	49 89 54 24 c8       	mov    %rdx,-0x38(%r12)
    58b8:	8b 85 38 ff ff ff    	mov    -0xc8(%rbp),%eax
    58be:	2b 85 3c ff ff ff    	sub    -0xc4(%rbp),%eax
    58c4:	83 c0 01             	add    $0x1,%eax
    58c7:	41 89 44 24 a0       	mov    %eax,-0x60(%r12)
    58cc:	41 8b 44 24 a0       	mov    -0x60(%r12),%eax
    58d1:	83 c0 01             	add    $0x1,%eax
    58d4:	01 c0                	add    %eax,%eax
    58d6:	41 89 44 24 a4       	mov    %eax,-0x5c(%r12)
    58db:	41 8b 44 24 a4       	mov    -0x5c(%r12),%eax
    58e0:	89 c0                	mov    %eax,%eax
    58e2:	48 89 c7             	mov    %rax,%rdi
    58e5:	e8 ed eb ff ff       	call   44d7 <jstring_temporary_memory_allocate_string>
    58ea:	48 89 85 58 ff ff ff 	mov    %rax,-0xa8(%rbp)
    58f1:	c7 85 54 ff ff ff 00 	movl   $0x0,-0xac(%rbp)
    58f8:	00 00 00 
    58fb:	e9 c7 00 00 00       	jmp    59c7 <jstring_create_substring_temporary+0x1e7>
    5900:	49 8d 44 24 c0       	lea    -0x40(%r12),%rax
    5905:	48 83 c0 08          	add    $0x8,%rax
    5909:	48 89 c2             	mov    %rax,%rdx
    590c:	48 c1 ea 03          	shr    $0x3,%rdx
    5910:	48 81 c2 00 80 ff 7f 	add    $0x7fff8000,%rdx
    5917:	0f b6 12             	movzbl (%rdx),%edx
    591a:	84 d2                	test   %dl,%dl
    591c:	74 08                	je     5926 <jstring_create_substring_temporary+0x146>
    591e:	48 89 c7             	mov    %rax,%rdi
    5921:	e8 9a e8 ff ff       	call   41c0 <__asan_report_load8@plt>
    5926:	49 8b 44 24 c8       	mov    -0x38(%r12),%rax
    592b:	8b 8d 54 ff ff ff    	mov    -0xac(%rbp),%ecx
    5931:	8b 95 3c ff ff ff    	mov    -0xc4(%rbp),%edx
    5937:	01 ca                	add    %ecx,%edx
    5939:	89 d2                	mov    %edx,%edx
    593b:	48 8d 34 10          	lea    (%rax,%rdx,1),%rsi
    593f:	8b 95 54 ff ff ff    	mov    -0xac(%rbp),%edx
    5945:	48 8b 85 58 ff ff ff 	mov    -0xa8(%rbp),%rax
    594c:	48 8d 0c 02          	lea    (%rdx,%rax,1),%rcx
    5950:	48 89 f0             	mov    %rsi,%rax
    5953:	48 89 c2             	mov    %rax,%rdx
    5956:	48 c1 ea 03          	shr    $0x3,%rdx
    595a:	48 81 c2 00 80 ff 7f 	add    $0x7fff8000,%rdx
    5961:	0f b6 12             	movzbl (%rdx),%edx
    5964:	84 d2                	test   %dl,%dl
    5966:	40 0f 95 c7          	setne  %dil
    596a:	49 89 c0             	mov    %rax,%r8
    596d:	41 83 e0 07          	and    $0x7,%r8d
    5971:	41 38 d0             	cmp    %dl,%r8b
    5974:	0f 9d c2             	setge  %dl
    5977:	21 fa                	and    %edi,%edx
    5979:	84 d2                	test   %dl,%dl
    597b:	74 08                	je     5985 <jstring_create_substring_temporary+0x1a5>
    597d:	48 89 c7             	mov    %rax,%rdi
    5980:	e8 0b e8 ff ff       	call   4190 <__asan_report_load1@plt>
    5985:	0f b6 36             	movzbl (%rsi),%esi
    5988:	48 89 c8             	mov    %rcx,%rax
    598b:	48 89 c2             	mov    %rax,%rdx
    598e:	48 c1 ea 03          	shr    $0x3,%rdx
    5992:	48 81 c2 00 80 ff 7f 	add    $0x7fff8000,%rdx
    5999:	0f b6 12             	movzbl (%rdx),%edx
    599c:	84 d2                	test   %dl,%dl
    599e:	40 0f 95 c7          	setne  %dil
    59a2:	49 89 c0             	mov    %rax,%r8
    59a5:	41 83 e0 07          	and    $0x7,%r8d
    59a9:	41 38 d0             	cmp    %dl,%r8b
    59ac:	0f 9d c2             	setge  %dl
    59af:	21 fa                	and    %edi,%edx
    59b1:	84 d2                	test   %dl,%dl
    59b3:	74 08                	je     59bd <jstring_create_substring_temporary+0x1dd>
    59b5:	48 89 c7             	mov    %rax,%rdi
    59b8:	e8 f3 e7 ff ff       	call   41b0 <__asan_report_store1@plt>
    59bd:	40 88 31             	mov    %sil,(%rcx)
    59c0:	83 85 54 ff ff ff 01 	addl   $0x1,-0xac(%rbp)
    59c7:	8b 85 38 ff ff ff    	mov    -0xc8(%rbp),%eax
    59cd:	2b 85 3c ff ff ff    	sub    -0xc4(%rbp),%eax
    59d3:	3b 85 54 ff ff ff    	cmp    -0xac(%rbp),%eax
    59d9:	0f 83 21 ff ff ff    	jae    5900 <jstring_create_substring_temporary+0x120>
    59df:	8b 95 54 ff ff ff    	mov    -0xac(%rbp),%edx
    59e5:	48 8b 85 58 ff ff ff 	mov    -0xa8(%rbp),%rax
    59ec:	48 8d 0c 02          	lea    (%rdx,%rax,1),%rcx
    59f0:	48 89 c8             	mov    %rcx,%rax
    59f3:	48 89 c2             	mov    %rax,%rdx
    59f6:	48 c1 ea 03          	shr    $0x3,%rdx
    59fa:	48 81 c2 00 80 ff 7f 	add    $0x7fff8000,%rdx
    5a01:	0f b6 12             	movzbl (%rdx),%edx
    5a04:	84 d2                	test   %dl,%dl
    5a06:	40 0f 95 c6          	setne  %sil
    5a0a:	48 89 c7             	mov    %rax,%rdi
    5a0d:	83 e7 07             	and    $0x7,%edi
    5a10:	40 38 d7             	cmp    %dl,%dil
    5a13:	0f 9d c2             	setge  %dl
    5a16:	21 f2                	and    %esi,%edx
    5a18:	84 d2                	test   %dl,%dl
    5a1a:	74 08                	je     5a24 <jstring_create_substring_temporary+0x244>
    5a1c:	48 89 c7             	mov    %rax,%rdi
    5a1f:	e8 8c e7 ff ff       	call   41b0 <__asan_report_store1@plt>
    5a24:	c6 01 00             	movb   $0x0,(%rcx)
    5a27:	48 8b 85 58 ff ff ff 	mov    -0xa8(%rbp),%rax
    5a2e:	49 89 44 24 a8       	mov    %rax,-0x58(%r12)
    5a33:	49 8b 44 24 a0       	mov    -0x60(%r12),%rax
    5a38:	49 8b 54 24 a8       	mov    -0x58(%r12),%rdx
    5a3d:	49 39 de             	cmp    %rbx,%r14
    5a40:	74 2c                	je     5a6e <jstring_create_substring_temporary+0x28e>
    5a42:	48 c7 03 0e 36 e0 45 	movq   $0x45e0360e,(%rbx)
    5a49:	48 be f5 f5 f5 f5 f5 	movabs $0xf5f5f5f5f5f5f5f5,%rsi
    5a50:	f5 f5 f5 
    5a53:	49 89 b5 00 80 ff 7f 	mov    %rsi,0x7fff8000(%r13)
    5a5a:	41 c7 85 08 80 ff 7f 	movl   $0xf5f5f5f5,0x7fff8008(%r13)
    5a61:	f5 f5 f5 f5 
    5a65:	48 8b 4b 78          	mov    0x78(%rbx),%rcx
    5a69:	c6 01 00             	movb   $0x0,(%rcx)
    5a6c:	eb 16                	jmp    5a84 <jstring_create_substring_temporary+0x2a4>
    5a6e:	49 c7 85 00 80 ff 7f 	movq   $0x0,0x7fff8000(%r13)
    5a75:	00 00 00 00 
    5a79:	41 c7 85 08 80 ff 7f 	movl   $0x0,0x7fff8008(%r13)
    5a80:	00 00 00 00 
    5a84:	48 8b 4d d8          	mov    -0x28(%rbp),%rcx
    5a88:	64 48 2b 0c 25 28 00 	sub    %fs:0x28,%rcx
    5a8f:	00 00 
    5a91:	74 05                	je     5a98 <jstring_create_substring_temporary+0x2b8>
    5a93:	e8 c8 e6 ff ff       	call   4160 <__stack_chk_fail@plt>
    5a98:	48 81 c4 b0 00 00 00 	add    $0xb0,%rsp
    5a9f:	5b                   	pop    %rbx
    5aa0:	41 5c                	pop    %r12
    5aa2:	41 5d                	pop    %r13
    5aa4:	41 5e                	pop    %r14
    5aa6:	5d                   	pop    %rbp
    5aa7:	c3                   	ret

0000000000005aa8 <jstring_concatenate_jstring>:
    5aa8:	55                   	push   %rbp
    5aa9:	48 89 e5             	mov    %rsp,%rbp
    5aac:	41 56                	push   %r14
    5aae:	41 55                	push   %r13
    5ab0:	41 54                	push   %r12
    5ab2:	53                   	push   %rbx
    5ab3:	48 81 ec a0 00 00 00 	sub    $0xa0,%rsp
    5aba:	48 89 bd 58 ff ff ff 	mov    %rdi,-0xa8(%rbp)
    5ac1:	48 89 f0             	mov    %rsi,%rax
    5ac4:	48 89 d1             	mov    %rdx,%rcx
    5ac7:	48 89 c0             	mov    %rax,%rax
    5aca:	ba 00 00 00 00       	mov    $0x0,%edx
    5acf:	48 89 ca             	mov    %rcx,%rdx
    5ad2:	48 89 85 40 ff ff ff 	mov    %rax,-0xc0(%rbp)
    5ad9:	48 89 95 48 ff ff ff 	mov    %rdx,-0xb8(%rbp)
    5ae0:	4c 8d 65 80          	lea    -0x80(%rbp),%r12
    5ae4:	4d 89 e6             	mov    %r12,%r14
    5ae7:	83 3d 72 57 01 00 00 	cmpl   $0x0,0x15772(%rip)        # 1b260 <__asan_option_detect_stack_use_after_return@@Base>
    5aee:	74 12                	je     5b02 <jstring_concatenate_jstring+0x5a>
    5af0:	bf 40 00 00 00       	mov    $0x40,%edi
    5af5:	e8 a6 e5 ff ff       	call   40a0 <__asan_stack_malloc_0@plt>
    5afa:	48 85 c0             	test   %rax,%rax
    5afd:	74 03                	je     5b02 <jstring_concatenate_jstring+0x5a>
    5aff:	49 89 c4             	mov    %rax,%r12
    5b02:	49 8d 44 24 60       	lea    0x60(%r12),%rax
    5b07:	48 89 c3             	mov    %rax,%rbx
    5b0a:	49 c7 04 24 b3 8a b5 	movq   $0x41b58ab3,(%r12)
    5b11:	41 
    5b12:	48 8d 05 d9 db 00 00 	lea    0xdbd9(%rip),%rax        # 136f2 <_IO_stdin_used+0x6f2>
    5b19:	49 89 44 24 08       	mov    %rax,0x8(%r12)
    5b1e:	48 8d 05 83 ff ff ff 	lea    -0x7d(%rip),%rax        # 5aa8 <jstring_concatenate_jstring>
    5b25:	49 89 44 24 10       	mov    %rax,0x10(%r12)
    5b2a:	4d 89 e5             	mov    %r12,%r13
    5b2d:	49 c1 ed 03          	shr    $0x3,%r13
    5b31:	41 c7 85 00 80 ff 7f 	movl   $0xf1f1f1f1,0x7fff8000(%r13)
    5b38:	f1 f1 f1 f1 
    5b3c:	41 c7 85 04 80 ff 7f 	movl   $0xf3f30000,0x7fff8004(%r13)
    5b43:	00 00 f3 f3 
    5b47:	64 48 8b 04 25 28 00 	mov    %fs:0x28,%rax
    5b4e:	00 00 
    5b50:	48 89 45 d8          	mov    %rax,-0x28(%rbp)
    5b54:	31 c0                	xor    %eax,%eax
    5b56:	48 8b 85 40 ff ff ff 	mov    -0xc0(%rbp),%rax
    5b5d:	48 8b 95 48 ff ff ff 	mov    -0xb8(%rbp),%rdx
    5b64:	48 89 43 c0          	mov    %rax,-0x40(%rbx)
    5b68:	48 89 53 c8          	mov    %rdx,-0x38(%rbx)
    5b6c:	8b 05 26 57 01 00    	mov    0x15726(%rip),%eax        # 1b298 <jstring_temporary_memory_info+0x18>
    5b72:	85 c0                	test   %eax,%eax
    5b74:	75 78                	jne    5bee <jstring_concatenate_jstring+0x146>
    5b76:	4c 8b 05 c3 35 01 00 	mov    0x135c3(%rip),%r8        # 19140 <jstring_log>
    5b7d:	48 8d 15 1c da 00 00 	lea    0xda1c(%rip),%rdx        # 135a0 <_IO_stdin_used+0x5a0>
    5b84:	48 8d 35 95 db 00 00 	lea    0xdb95(%rip),%rsi        # 13720 <_IO_stdin_used+0x720>
    5b8b:	48 8d 05 8e da 00 00 	lea    0xda8e(%rip),%rax        # 13620 <_IO_stdin_used+0x620>
    5b92:	b9 b6 01 00 00       	mov    $0x1b6,%ecx
    5b97:	48 89 c7             	mov    %rax,%rdi
    5b9a:	b8 00 00 00 00       	mov    $0x0,%eax
    5b9f:	41 ff d0             	call   *%r8
    5ba2:	b9 00 00 00 00       	mov    $0x0,%ecx
    5ba7:	48 89 c8             	mov    %rcx,%rax
    5baa:	48 89 c2             	mov    %rax,%rdx
    5bad:	48 c1 ea 03          	shr    $0x3,%rdx
    5bb1:	48 81 c2 00 80 ff 7f 	add    $0x7fff8000,%rdx
    5bb8:	0f b6 12             	movzbl (%rdx),%edx
    5bbb:	84 d2                	test   %dl,%dl
    5bbd:	40 0f 95 c6          	setne  %sil
    5bc1:	48 89 c7             	mov    %rax,%rdi
    5bc4:	83 e7 07             	and    $0x7,%edi
    5bc7:	40 38 d7             	cmp    %dl,%dil
    5bca:	0f 9d c2             	setge  %dl
    5bcd:	21 f2                	and    %esi,%edx
    5bcf:	84 d2                	test   %dl,%dl
    5bd1:	74 08                	je     5bdb <jstring_concatenate_jstring+0x133>
    5bd3:	48 89 c7             	mov    %rax,%rdi
    5bd6:	e8 b5 e5 ff ff       	call   4190 <__asan_report_load1@plt>
    5bdb:	0f b6 01             	movzbl (%rcx),%eax
    5bde:	88 85 67 ff ff ff    	mov    %al,-0x99(%rbp)
    5be4:	b8 00 00 00 00       	mov    $0x0,%eax
    5be9:	e9 f7 06 00 00       	jmp    62e5 <jstring_concatenate_jstring+0x83d>
    5bee:	48 8b 85 58 ff ff ff 	mov    -0xa8(%rbp),%rax
    5bf5:	48 89 c2             	mov    %rax,%rdx
    5bf8:	48 89 d0             	mov    %rdx,%rax
    5bfb:	48 c1 e8 03          	shr    $0x3,%rax
    5bff:	48 05 00 80 ff 7f    	add    $0x7fff8000,%rax
    5c05:	0f b6 00             	movzbl (%rax),%eax
    5c08:	84 c0                	test   %al,%al
    5c0a:	0f 95 c1             	setne  %cl
    5c0d:	3c 03                	cmp    $0x3,%al
    5c0f:	0f 9e c0             	setle  %al
    5c12:	21 c8                	and    %ecx,%eax
    5c14:	84 c0                	test   %al,%al
    5c16:	74 08                	je     5c20 <jstring_concatenate_jstring+0x178>
    5c18:	48 89 d7             	mov    %rdx,%rdi
    5c1b:	e8 d0 e4 ff ff       	call   40f0 <__asan_report_load4@plt>
    5c20:	48 8b 85 58 ff ff ff 	mov    -0xa8(%rbp),%rax
    5c27:	8b 08                	mov    (%rax),%ecx
    5c29:	48 8d 43 c0          	lea    -0x40(%rbx),%rax
    5c2d:	48 89 c2             	mov    %rax,%rdx
    5c30:	48 89 d0             	mov    %rdx,%rax
    5c33:	48 c1 e8 03          	shr    $0x3,%rax
    5c37:	48 05 00 80 ff 7f    	add    $0x7fff8000,%rax
    5c3d:	0f b6 00             	movzbl (%rax),%eax
    5c40:	84 c0                	test   %al,%al
    5c42:	40 0f 95 c6          	setne  %sil
    5c46:	3c 03                	cmp    $0x3,%al
    5c48:	0f 9e c0             	setle  %al
    5c4b:	21 f0                	and    %esi,%eax
    5c4d:	84 c0                	test   %al,%al
    5c4f:	74 08                	je     5c59 <jstring_concatenate_jstring+0x1b1>
    5c51:	48 89 d7             	mov    %rdx,%rdi
    5c54:	e8 97 e4 ff ff       	call   40f0 <__asan_report_load4@plt>
    5c59:	8b 43 c0             	mov    -0x40(%rbx),%eax
    5c5c:	01 c1                	add    %eax,%ecx
    5c5e:	48 8b 85 58 ff ff ff 	mov    -0xa8(%rbp),%rax
    5c65:	48 83 c0 04          	add    $0x4,%rax
    5c69:	48 89 c2             	mov    %rax,%rdx
    5c6c:	48 c1 ea 03          	shr    $0x3,%rdx
    5c70:	48 81 c2 00 80 ff 7f 	add    $0x7fff8000,%rdx
    5c77:	0f b6 12             	movzbl (%rdx),%edx
    5c7a:	84 d2                	test   %dl,%dl
    5c7c:	40 0f 95 c7          	setne  %dil
    5c80:	48 89 c6             	mov    %rax,%rsi
    5c83:	83 e6 07             	and    $0x7,%esi
    5c86:	83 c6 03             	add    $0x3,%esi
    5c89:	40 38 d6             	cmp    %dl,%sil
    5c8c:	0f 9d c2             	setge  %dl
    5c8f:	21 fa                	and    %edi,%edx
    5c91:	84 d2                	test   %dl,%dl
    5c93:	74 08                	je     5c9d <jstring_concatenate_jstring+0x1f5>
    5c95:	48 89 c7             	mov    %rax,%rdi
    5c98:	e8 53 e4 ff ff       	call   40f0 <__asan_report_load4@plt>
    5c9d:	48 8b 85 58 ff ff ff 	mov    -0xa8(%rbp),%rax
    5ca4:	8b 40 04             	mov    0x4(%rax),%eax
    5ca7:	39 c1                	cmp    %eax,%ecx
    5ca9:	0f 83 9e 01 00 00    	jae    5e4d <jstring_concatenate_jstring+0x3a5>
    5caf:	48 8b 85 58 ff ff ff 	mov    -0xa8(%rbp),%rax
    5cb6:	48 83 c0 08          	add    $0x8,%rax
    5cba:	48 89 c2             	mov    %rax,%rdx
    5cbd:	48 c1 ea 03          	shr    $0x3,%rdx
    5cc1:	48 81 c2 00 80 ff 7f 	add    $0x7fff8000,%rdx
    5cc8:	0f b6 12             	movzbl (%rdx),%edx
    5ccb:	84 d2                	test   %dl,%dl
    5ccd:	74 08                	je     5cd7 <jstring_concatenate_jstring+0x22f>
    5ccf:	48 89 c7             	mov    %rax,%rdi
    5cd2:	e8 e9 e4 ff ff       	call   41c0 <__asan_report_load8@plt>
    5cd7:	48 8b 85 58 ff ff ff 	mov    -0xa8(%rbp),%rax
    5cde:	48 8b 50 08          	mov    0x8(%rax),%rdx
    5ce2:	48 8b 85 58 ff ff ff 	mov    -0xa8(%rbp),%rax
    5ce9:	8b 00                	mov    (%rax),%eax
    5ceb:	89 c0                	mov    %eax,%eax
    5ced:	48 01 d0             	add    %rdx,%rax
    5cf0:	48 89 85 78 ff ff ff 	mov    %rax,-0x88(%rbp)
    5cf7:	c7 85 68 ff ff ff 00 	movl   $0x0,-0x98(%rbp)
    5cfe:	00 00 00 
    5d01:	e9 bb 00 00 00       	jmp    5dc1 <jstring_concatenate_jstring+0x319>
    5d06:	48 8d 43 c0          	lea    -0x40(%rbx),%rax
    5d0a:	48 83 c0 08          	add    $0x8,%rax
    5d0e:	48 89 c2             	mov    %rax,%rdx
    5d11:	48 c1 ea 03          	shr    $0x3,%rdx
    5d15:	48 81 c2 00 80 ff 7f 	add    $0x7fff8000,%rdx
    5d1c:	0f b6 12             	movzbl (%rdx),%edx
    5d1f:	84 d2                	test   %dl,%dl
    5d21:	74 08                	je     5d2b <jstring_concatenate_jstring+0x283>
    5d23:	48 89 c7             	mov    %rax,%rdi
    5d26:	e8 95 e4 ff ff       	call   41c0 <__asan_report_load8@plt>
    5d2b:	48 8b 53 c8          	mov    -0x38(%rbx),%rdx
    5d2f:	8b 85 68 ff ff ff    	mov    -0x98(%rbp),%eax
    5d35:	48 8d 34 02          	lea    (%rdx,%rax,1),%rsi
    5d39:	8b 95 68 ff ff ff    	mov    -0x98(%rbp),%edx
    5d3f:	48 8b 85 78 ff ff ff 	mov    -0x88(%rbp),%rax
    5d46:	48 8d 0c 02          	lea    (%rdx,%rax,1),%rcx
    5d4a:	48 89 f0             	mov    %rsi,%rax
    5d4d:	48 89 c2             	mov    %rax,%rdx
    5d50:	48 c1 ea 03          	shr    $0x3,%rdx
    5d54:	48 81 c2 00 80 ff 7f 	add    $0x7fff8000,%rdx
    5d5b:	0f b6 12             	movzbl (%rdx),%edx
    5d5e:	84 d2                	test   %dl,%dl
    5d60:	40 0f 95 c7          	setne  %dil
    5d64:	49 89 c0             	mov    %rax,%r8
    5d67:	41 83 e0 07          	and    $0x7,%r8d
    5d6b:	41 38 d0             	cmp    %dl,%r8b
    5d6e:	0f 9d c2             	setge  %dl
    5d71:	21 fa                	and    %edi,%edx
    5d73:	84 d2                	test   %dl,%dl
    5d75:	74 08                	je     5d7f <jstring_concatenate_jstring+0x2d7>
    5d77:	48 89 c7             	mov    %rax,%rdi
    5d7a:	e8 11 e4 ff ff       	call   4190 <__asan_report_load1@plt>
    5d7f:	0f b6 36             	movzbl (%rsi),%esi
    5d82:	48 89 c8             	mov    %rcx,%rax
    5d85:	48 89 c2             	mov    %rax,%rdx
    5d88:	48 c1 ea 03          	shr    $0x3,%rdx
    5d8c:	48 81 c2 00 80 ff 7f 	add    $0x7fff8000,%rdx
    5d93:	0f b6 12             	movzbl (%rdx),%edx
    5d96:	84 d2                	test   %dl,%dl
    5d98:	40 0f 95 c7          	setne  %dil
    5d9c:	49 89 c0             	mov    %rax,%r8
    5d9f:	41 83 e0 07          	and    $0x7,%r8d
    5da3:	41 38 d0             	cmp    %dl,%r8b
    5da6:	0f 9d c2             	setge  %dl
    5da9:	21 fa                	and    %edi,%edx
    5dab:	84 d2                	test   %dl,%dl
    5dad:	74 08                	je     5db7 <jstring_concatenate_jstring+0x30f>
    5daf:	48 89 c7             	mov    %rax,%rdi
    5db2:	e8 f9 e3 ff ff       	call   41b0 <__asan_report_store1@plt>
    5db7:	40 88 31             	mov    %sil,(%rcx)
    5dba:	83 85 68 ff ff ff 01 	addl   $0x1,-0x98(%rbp)
    5dc1:	48 8d 43 c0          	lea    -0x40(%rbx),%rax
    5dc5:	48 89 c2             	mov    %rax,%rdx
    5dc8:	48 89 d0             	mov    %rdx,%rax
    5dcb:	48 c1 e8 03          	shr    $0x3,%rax
    5dcf:	48 05 00 80 ff 7f    	add    $0x7fff8000,%rax
    5dd5:	0f b6 00             	movzbl (%rax),%eax
    5dd8:	84 c0                	test   %al,%al
    5dda:	0f 95 c1             	setne  %cl
    5ddd:	3c 03                	cmp    $0x3,%al
    5ddf:	0f 9e c0             	setle  %al
    5de2:	21 c8                	and    %ecx,%eax
    5de4:	84 c0                	test   %al,%al
    5de6:	74 08                	je     5df0 <jstring_concatenate_jstring+0x348>
    5de8:	48 89 d7             	mov    %rdx,%rdi
    5deb:	e8 00 e3 ff ff       	call   40f0 <__asan_report_load4@plt>
    5df0:	8b 43 c0             	mov    -0x40(%rbx),%eax
    5df3:	3b 85 68 ff ff ff    	cmp    -0x98(%rbp),%eax
    5df9:	0f 83 07 ff ff ff    	jae    5d06 <jstring_concatenate_jstring+0x25e>
    5dff:	48 8b 85 58 ff ff ff 	mov    -0xa8(%rbp),%rax
    5e06:	48 89 c2             	mov    %rax,%rdx
    5e09:	48 89 d0             	mov    %rdx,%rax
    5e0c:	48 c1 e8 03          	shr    $0x3,%rax
    5e10:	48 05 00 80 ff 7f    	add    $0x7fff8000,%rax
    5e16:	0f b6 00             	movzbl (%rax),%eax
    5e19:	84 c0                	test   %al,%al
    5e1b:	0f 95 c1             	setne  %cl
    5e1e:	3c 03                	cmp    $0x3,%al
    5e20:	0f 9e c0             	setle  %al
    5e23:	21 c8                	and    %ecx,%eax
    5e25:	84 c0                	test   %al,%al
    5e27:	74 08                	je     5e31 <jstring_concatenate_jstring+0x389>
    5e29:	48 89 d7             	mov    %rdx,%rdi
    5e2c:	e8 bf e2 ff ff       	call   40f0 <__asan_report_load4@plt>
    5e31:	48 8b 85 58 ff ff ff 	mov    -0xa8(%rbp),%rax
    5e38:	8b 10                	mov    (%rax),%edx
    5e3a:	8b 43 c0             	mov    -0x40(%rbx),%eax
    5e3d:	01 c2                	add    %eax,%edx
    5e3f:	48 8b 85 58 ff ff ff 	mov    -0xa8(%rbp),%rax
    5e46:	89 10                	mov    %edx,(%rax)
    5e48:	e9 93 04 00 00       	jmp    62e0 <jstring_concatenate_jstring+0x838>
    5e4d:	48 8b 0d 2c 54 01 00 	mov    0x1542c(%rip),%rcx        # 1b280 <jstring_temporary_memory_info>
    5e54:	48 8b 35 2d 54 01 00 	mov    0x1542d(%rip),%rsi        # 1b288 <jstring_temporary_memory_info+0x8>
    5e5b:	48 8b 85 58 ff ff ff 	mov    -0xa8(%rbp),%rax
    5e62:	48 89 c2             	mov    %rax,%rdx
    5e65:	48 89 d0             	mov    %rdx,%rax
    5e68:	48 c1 e8 03          	shr    $0x3,%rax
    5e6c:	48 05 00 80 ff 7f    	add    $0x7fff8000,%rax
    5e72:	0f b6 00             	movzbl (%rax),%eax
    5e75:	84 c0                	test   %al,%al
    5e77:	40 0f 95 c7          	setne  %dil
    5e7b:	3c 03                	cmp    $0x3,%al
    5e7d:	0f 9e c0             	setle  %al
    5e80:	21 f8                	and    %edi,%eax
    5e82:	84 c0                	test   %al,%al
    5e84:	74 08                	je     5e8e <jstring_concatenate_jstring+0x3e6>
    5e86:	48 89 d7             	mov    %rdx,%rdi
    5e89:	e8 62 e2 ff ff       	call   40f0 <__asan_report_load4@plt>
    5e8e:	48 8b 85 58 ff ff ff 	mov    -0xa8(%rbp),%rax
    5e95:	8b 38                	mov    (%rax),%edi
    5e97:	48 8d 43 c0          	lea    -0x40(%rbx),%rax
    5e9b:	48 89 c2             	mov    %rax,%rdx
    5e9e:	48 89 d0             	mov    %rdx,%rax
    5ea1:	48 c1 e8 03          	shr    $0x3,%rax
    5ea5:	48 05 00 80 ff 7f    	add    $0x7fff8000,%rax
    5eab:	0f b6 00             	movzbl (%rax),%eax
    5eae:	84 c0                	test   %al,%al
    5eb0:	41 0f 95 c0          	setne  %r8b
    5eb4:	3c 03                	cmp    $0x3,%al
    5eb6:	0f 9e c0             	setle  %al
    5eb9:	44 21 c0             	and    %r8d,%eax
    5ebc:	84 c0                	test   %al,%al
    5ebe:	74 08                	je     5ec8 <jstring_concatenate_jstring+0x420>
    5ec0:	48 89 d7             	mov    %rdx,%rdi
    5ec3:	e8 28 e2 ff ff       	call   40f0 <__asan_report_load4@plt>
    5ec8:	8b 43 c0             	mov    -0x40(%rbx),%eax
    5ecb:	01 f8                	add    %edi,%eax
    5ecd:	83 c0 01             	add    $0x1,%eax
    5ed0:	01 c0                	add    %eax,%eax
    5ed2:	89 c0                	mov    %eax,%eax
    5ed4:	48 01 f0             	add    %rsi,%rax
    5ed7:	48 39 c1             	cmp    %rax,%rcx
    5eda:	73 6e                	jae    5f4a <jstring_concatenate_jstring+0x4a2>
    5edc:	4c 8b 05 5d 32 01 00 	mov    0x1325d(%rip),%r8        # 19140 <jstring_log>
    5ee3:	48 8d 15 b6 d6 00 00 	lea    0xd6b6(%rip),%rdx        # 135a0 <_IO_stdin_used+0x5a0>
    5eea:	48 8d 35 2f d8 00 00 	lea    0xd82f(%rip),%rsi        # 13720 <_IO_stdin_used+0x720>
    5ef1:	48 8d 05 28 d7 00 00 	lea    0xd728(%rip),%rax        # 13620 <_IO_stdin_used+0x620>
    5ef8:	b9 cb 01 00 00       	mov    $0x1cb,%ecx
    5efd:	48 89 c7             	mov    %rax,%rdi
    5f00:	b8 00 00 00 00       	mov    $0x0,%eax
    5f05:	41 ff d0             	call   *%r8
    5f08:	b9 00 00 00 00       	mov    $0x0,%ecx
    5f0d:	48 89 c8             	mov    %rcx,%rax
    5f10:	48 89 c2             	mov    %rax,%rdx
    5f13:	48 c1 ea 03          	shr    $0x3,%rdx
    5f17:	48 81 c2 00 80 ff 7f 	add    $0x7fff8000,%rdx
    5f1e:	0f b6 12             	movzbl (%rdx),%edx
    5f21:	84 d2                	test   %dl,%dl
    5f23:	40 0f 95 c6          	setne  %sil
    5f27:	48 89 c7             	mov    %rax,%rdi
    5f2a:	83 e7 07             	and    $0x7,%edi
    5f2d:	40 38 d7             	cmp    %dl,%dil
    5f30:	0f 9d c2             	setge  %dl
    5f33:	21 f2                	and    %esi,%edx
    5f35:	84 d2                	test   %dl,%dl
    5f37:	74 08                	je     5f41 <jstring_concatenate_jstring+0x499>
    5f39:	48 89 c7             	mov    %rax,%rdi
    5f3c:	e8 4f e2 ff ff       	call   4190 <__asan_report_load1@plt>
    5f41:	0f b6 01             	movzbl (%rcx),%eax
    5f44:	88 85 66 ff ff ff    	mov    %al,-0x9a(%rbp)
    5f4a:	48 8b 85 58 ff ff ff 	mov    -0xa8(%rbp),%rax
    5f51:	48 89 c2             	mov    %rax,%rdx
    5f54:	48 89 d0             	mov    %rdx,%rax
    5f57:	48 c1 e8 03          	shr    $0x3,%rax
    5f5b:	48 05 00 80 ff 7f    	add    $0x7fff8000,%rax
    5f61:	0f b6 00             	movzbl (%rax),%eax
    5f64:	84 c0                	test   %al,%al
    5f66:	0f 95 c1             	setne  %cl
    5f69:	3c 03                	cmp    $0x3,%al
    5f6b:	0f 9e c0             	setle  %al
    5f6e:	21 c8                	and    %ecx,%eax
    5f70:	84 c0                	test   %al,%al
    5f72:	74 08                	je     5f7c <jstring_concatenate_jstring+0x4d4>
    5f74:	48 89 d7             	mov    %rdx,%rdi
    5f77:	e8 74 e1 ff ff       	call   40f0 <__asan_report_load4@plt>
    5f7c:	48 8b 85 58 ff ff ff 	mov    -0xa8(%rbp),%rax
    5f83:	8b 08                	mov    (%rax),%ecx
    5f85:	48 8d 43 c0          	lea    -0x40(%rbx),%rax
    5f89:	48 89 c2             	mov    %rax,%rdx
    5f8c:	48 89 d0             	mov    %rdx,%rax
    5f8f:	48 c1 e8 03          	shr    $0x3,%rax
    5f93:	48 05 00 80 ff 7f    	add    $0x7fff8000,%rax
    5f99:	0f b6 00             	movzbl (%rax),%eax
    5f9c:	84 c0                	test   %al,%al
    5f9e:	40 0f 95 c6          	setne  %sil
    5fa2:	3c 03                	cmp    $0x3,%al
    5fa4:	0f 9e c0             	setle  %al
    5fa7:	21 f0                	and    %esi,%eax
    5fa9:	84 c0                	test   %al,%al
    5fab:	74 08                	je     5fb5 <jstring_concatenate_jstring+0x50d>
    5fad:	48 89 d7             	mov    %rdx,%rdi
    5fb0:	e8 3b e1 ff ff       	call   40f0 <__asan_report_load4@plt>
    5fb5:	8b 43 c0             	mov    -0x40(%rbx),%eax
    5fb8:	01 c8                	add    %ecx,%eax
    5fba:	83 c0 01             	add    $0x1,%eax
    5fbd:	01 c0                	add    %eax,%eax
    5fbf:	89 c0                	mov    %eax,%eax
    5fc1:	48 89 c7             	mov    %rax,%rdi
    5fc4:	e8 0e e5 ff ff       	call   44d7 <jstring_temporary_memory_allocate_string>
    5fc9:	48 89 85 70 ff ff ff 	mov    %rax,-0x90(%rbp)
    5fd0:	c7 85 6c ff ff ff 00 	movl   $0x0,-0x94(%rbp)
    5fd7:	00 00 00 
    5fda:	e9 c5 00 00 00       	jmp    60a4 <jstring_concatenate_jstring+0x5fc>
    5fdf:	48 8b 85 58 ff ff ff 	mov    -0xa8(%rbp),%rax
    5fe6:	48 83 c0 08          	add    $0x8,%rax
    5fea:	48 89 c2             	mov    %rax,%rdx
    5fed:	48 c1 ea 03          	shr    $0x3,%rdx
    5ff1:	48 81 c2 00 80 ff 7f 	add    $0x7fff8000,%rdx
    5ff8:	0f b6 12             	movzbl (%rdx),%edx
    5ffb:	84 d2                	test   %dl,%dl
    5ffd:	74 08                	je     6007 <jstring_concatenate_jstring+0x55f>
    5fff:	48 89 c7             	mov    %rax,%rdi
    6002:	e8 b9 e1 ff ff       	call   41c0 <__asan_report_load8@plt>
    6007:	48 8b 85 58 ff ff ff 	mov    -0xa8(%rbp),%rax
    600e:	48 8b 50 08          	mov    0x8(%rax),%rdx
    6012:	8b 85 6c ff ff ff    	mov    -0x94(%rbp),%eax
    6018:	48 8d 34 02          	lea    (%rdx,%rax,1),%rsi
    601c:	8b 95 6c ff ff ff    	mov    -0x94(%rbp),%edx
    6022:	48 8b 85 70 ff ff ff 	mov    -0x90(%rbp),%rax
    6029:	48 8d 0c 02          	lea    (%rdx,%rax,1),%rcx
    602d:	48 89 f0             	mov    %rsi,%rax
    6030:	48 89 c2             	mov    %rax,%rdx
    6033:	48 c1 ea 03          	shr    $0x3,%rdx
    6037:	48 81 c2 00 80 ff 7f 	add    $0x7fff8000,%rdx
    603e:	0f b6 12             	movzbl (%rdx),%edx
    6041:	84 d2                	test   %dl,%dl
    6043:	40 0f 95 c7          	setne  %dil
    6047:	49 89 c0             	mov    %rax,%r8
    604a:	41 83 e0 07          	and    $0x7,%r8d
    604e:	41 38 d0             	cmp    %dl,%r8b
    6051:	0f 9d c2             	setge  %dl
    6054:	21 fa                	and    %edi,%edx
    6056:	84 d2                	test   %dl,%dl
    6058:	74 08                	je     6062 <jstring_concatenate_jstring+0x5ba>
    605a:	48 89 c7             	mov    %rax,%rdi
    605d:	e8 2e e1 ff ff       	call   4190 <__asan_report_load1@plt>
    6062:	0f b6 36             	movzbl (%rsi),%esi
    6065:	48 89 c8             	mov    %rcx,%rax
    6068:	48 89 c2             	mov    %rax,%rdx
    606b:	48 c1 ea 03          	shr    $0x3,%rdx
    606f:	48 81 c2 00 80 ff 7f 	add    $0x7fff8000,%rdx
    6076:	0f b6 12             	movzbl (%rdx),%edx
    6079:	84 d2                	test   %dl,%dl
    607b:	40 0f 95 c7          	setne  %dil
    607f:	49 89 c0             	mov    %rax,%r8
    6082:	41 83 e0 07          	and    $0x7,%r8d
    6086:	41 38 d0             	cmp    %dl,%r8b
    6089:	0f 9d c2             	setge  %dl
    608c:	21 fa                	and    %edi,%edx
    608e:	84 d2                	test   %dl,%dl
    6090:	74 08                	je     609a <jstring_concatenate_jstring+0x5f2>
    6092:	48 89 c7             	mov    %rax,%rdi
    6095:	e8 16 e1 ff ff       	call   41b0 <__asan_report_store1@plt>
    609a:	40 88 31             	mov    %sil,(%rcx)
    609d:	83 85 6c ff ff ff 01 	addl   $0x1,-0x94(%rbp)
    60a4:	48 8b 85 58 ff ff ff 	mov    -0xa8(%rbp),%rax
    60ab:	48 89 c2             	mov    %rax,%rdx
    60ae:	48 89 d0             	mov    %rdx,%rax
    60b1:	48 c1 e8 03          	shr    $0x3,%rax
    60b5:	48 05 00 80 ff 7f    	add    $0x7fff8000,%rax
    60bb:	0f b6 00             	movzbl (%rax),%eax
    60be:	84 c0                	test   %al,%al
    60c0:	0f 95 c1             	setne  %cl
    60c3:	3c 03                	cmp    $0x3,%al
    60c5:	0f 9e c0             	setle  %al
    60c8:	21 c8                	and    %ecx,%eax
    60ca:	84 c0                	test   %al,%al
    60cc:	74 08                	je     60d6 <jstring_concatenate_jstring+0x62e>
    60ce:	48 89 d7             	mov    %rdx,%rdi
    60d1:	e8 1a e0 ff ff       	call   40f0 <__asan_report_load4@plt>
    60d6:	48 8b 85 58 ff ff ff 	mov    -0xa8(%rbp),%rax
    60dd:	8b 00                	mov    (%rax),%eax
    60df:	39 85 6c ff ff ff    	cmp    %eax,-0x94(%rbp)
    60e5:	0f 82 f4 fe ff ff    	jb     5fdf <jstring_concatenate_jstring+0x537>
    60eb:	48 8b 85 58 ff ff ff 	mov    -0xa8(%rbp),%rax
    60f2:	48 83 c0 08          	add    $0x8,%rax
    60f6:	48 89 c2             	mov    %rax,%rdx
    60f9:	48 c1 ea 03          	shr    $0x3,%rdx
    60fd:	48 81 c2 00 80 ff 7f 	add    $0x7fff8000,%rdx
    6104:	0f b6 12             	movzbl (%rdx),%edx
    6107:	84 d2                	test   %dl,%dl
    6109:	74 08                	je     6113 <jstring_concatenate_jstring+0x66b>
    610b:	48 89 c7             	mov    %rax,%rdi
    610e:	e8 2d e0 ff ff       	call   4140 <__asan_report_store8@plt>
    6113:	48 8b 85 58 ff ff ff 	mov    -0xa8(%rbp),%rax
    611a:	48 8b 95 70 ff ff ff 	mov    -0x90(%rbp),%rdx
    6121:	48 89 50 08          	mov    %rdx,0x8(%rax)
    6125:	48 8b 85 58 ff ff ff 	mov    -0xa8(%rbp),%rax
    612c:	8b 00                	mov    (%rax),%eax
    612e:	89 c0                	mov    %eax,%eax
    6130:	48 01 85 70 ff ff ff 	add    %rax,-0x90(%rbp)
    6137:	c7 85 6c ff ff ff 00 	movl   $0x0,-0x94(%rbp)
    613e:	00 00 00 
    6141:	e9 bb 00 00 00       	jmp    6201 <jstring_concatenate_jstring+0x759>
    6146:	48 8d 43 c0          	lea    -0x40(%rbx),%rax
    614a:	48 83 c0 08          	add    $0x8,%rax
    614e:	48 89 c2             	mov    %rax,%rdx
    6151:	48 c1 ea 03          	shr    $0x3,%rdx
    6155:	48 81 c2 00 80 ff 7f 	add    $0x7fff8000,%rdx
    615c:	0f b6 12             	movzbl (%rdx),%edx
    615f:	84 d2                	test   %dl,%dl
    6161:	74 08                	je     616b <jstring_concatenate_jstring+0x6c3>
    6163:	48 89 c7             	mov    %rax,%rdi
    6166:	e8 55 e0 ff ff       	call   41c0 <__asan_report_load8@plt>
    616b:	48 8b 53 c8          	mov    -0x38(%rbx),%rdx
    616f:	8b 85 6c ff ff ff    	mov    -0x94(%rbp),%eax
    6175:	48 8d 34 02          	lea    (%rdx,%rax,1),%rsi
    6179:	8b 95 6c ff ff ff    	mov    -0x94(%rbp),%edx
    617f:	48 8b 85 70 ff ff ff 	mov    -0x90(%rbp),%rax
    6186:	48 8d 0c 02          	lea    (%rdx,%rax,1),%rcx
    618a:	48 89 f0             	mov    %rsi,%rax
    618d:	48 89 c2             	mov    %rax,%rdx
    6190:	48 c1 ea 03          	shr    $0x3,%rdx
    6194:	48 81 c2 00 80 ff 7f 	add    $0x7fff8000,%rdx
    619b:	0f b6 12             	movzbl (%rdx),%edx
    619e:	84 d2                	test   %dl,%dl
    61a0:	40 0f 95 c7          	setne  %dil
    61a4:	49 89 c0             	mov    %rax,%r8
    61a7:	41 83 e0 07          	and    $0x7,%r8d
    61ab:	41 38 d0             	cmp    %dl,%r8b
    61ae:	0f 9d c2             	setge  %dl
    61b1:	21 fa                	and    %edi,%edx
    61b3:	84 d2                	test   %dl,%dl
    61b5:	74 08                	je     61bf <jstring_concatenate_jstring+0x717>
    61b7:	48 89 c7             	mov    %rax,%rdi
    61ba:	e8 d1 df ff ff       	call   4190 <__asan_report_load1@plt>
    61bf:	0f b6 36             	movzbl (%rsi),%esi
    61c2:	48 89 c8             	mov    %rcx,%rax
    61c5:	48 89 c2             	mov    %rax,%rdx
    61c8:	48 c1 ea 03          	shr    $0x3,%rdx
    61cc:	48 81 c2 00 80 ff 7f 	add    $0x7fff8000,%rdx
    61d3:	0f b6 12             	movzbl (%rdx),%edx
    61d6:	84 d2                	test   %dl,%dl
    61d8:	40 0f 95 c7          	setne  %dil
    61dc:	49 89 c0             	mov    %rax,%r8
    61df:	41 83 e0 07          	and    $0x7,%r8d
    61e3:	41 38 d0             	cmp    %dl,%r8b
    61e6:	0f 9d c2             	setge  %dl
    61e9:	21 fa                	and    %edi,%edx
    61eb:	84 d2                	test   %dl,%dl
    61ed:	74 08                	je     61f7 <jstring_concatenate_jstring+0x74f>
    61ef:	48 89 c7             	mov    %rax,%rdi
    61f2:	e8 b9 df ff ff       	call   41b0 <__asan_report_store1@plt>
    61f7:	40 88 31             	mov    %sil,(%rcx)
    61fa:	83 85 6c ff ff ff 01 	addl   $0x1,-0x94(%rbp)
    6201:	48 8d 43 c0          	lea    -0x40(%rbx),%rax
    6205:	48 89 c2             	mov    %rax,%rdx
    6208:	48 89 d0             	mov    %rdx,%rax
    620b:	48 c1 e8 03          	shr    $0x3,%rax
    620f:	48 05 00 80 ff 7f    	add    $0x7fff8000,%rax
    6215:	0f b6 00             	movzbl (%rax),%eax
    6218:	84 c0                	test   %al,%al
    621a:	0f 95 c1             	setne  %cl
    621d:	3c 03                	cmp    $0x3,%al
    621f:	0f 9e c0             	setle  %al
    6222:	21 c8                	and    %ecx,%eax
    6224:	84 c0                	test   %al,%al
    6226:	74 08                	je     6230 <jstring_concatenate_jstring+0x788>
    6228:	48 89 d7             	mov    %rdx,%rdi
    622b:	e8 c0 de ff ff       	call   40f0 <__asan_report_load4@plt>
    6230:	8b 43 c0             	mov    -0x40(%rbx),%eax
    6233:	3b 85 6c ff ff ff    	cmp    -0x94(%rbp),%eax
    6239:	0f 83 07 ff ff ff    	jae    6146 <jstring_concatenate_jstring+0x69e>
    623f:	48 8b 85 58 ff ff ff 	mov    -0xa8(%rbp),%rax
    6246:	48 89 c2             	mov    %rax,%rdx
    6249:	48 89 d0             	mov    %rdx,%rax
    624c:	48 c1 e8 03          	shr    $0x3,%rax
    6250:	48 05 00 80 ff 7f    	add    $0x7fff8000,%rax
    6256:	0f b6 00             	movzbl (%rax),%eax
    6259:	84 c0                	test   %al,%al
    625b:	0f 95 c1             	setne  %cl
    625e:	3c 03                	cmp    $0x3,%al
    6260:	0f 9e c0             	setle  %al
    6263:	21 c8                	and    %ecx,%eax
    6265:	84 c0                	test   %al,%al
    6267:	74 08                	je     6271 <jstring_concatenate_jstring+0x7c9>
    6269:	48 89 d7             	mov    %rdx,%rdi
    626c:	e8 7f de ff ff       	call   40f0 <__asan_report_load4@plt>
    6271:	48 8b 85 58 ff ff ff 	mov    -0xa8(%rbp),%rax
    6278:	8b 10                	mov    (%rax),%edx
    627a:	8b 43 c0             	mov    -0x40(%rbx),%eax
    627d:	01 c2                	add    %eax,%edx
    627f:	48 8b 85 58 ff ff ff 	mov    -0xa8(%rbp),%rax
    6286:	89 10                	mov    %edx,(%rax)
    6288:	48 8b 85 58 ff ff ff 	mov    -0xa8(%rbp),%rax
    628f:	8b 00                	mov    (%rax),%eax
    6291:	83 c0 01             	add    $0x1,%eax
    6294:	8d 0c 00             	lea    (%rax,%rax,1),%ecx
    6297:	48 8b 85 58 ff ff ff 	mov    -0xa8(%rbp),%rax
    629e:	48 83 c0 04          	add    $0x4,%rax
    62a2:	48 89 c2             	mov    %rax,%rdx
    62a5:	48 c1 ea 03          	shr    $0x3,%rdx
    62a9:	48 81 c2 00 80 ff 7f 	add    $0x7fff8000,%rdx
    62b0:	0f b6 12             	movzbl (%rdx),%edx
    62b3:	84 d2                	test   %dl,%dl
    62b5:	40 0f 95 c7          	setne  %dil
    62b9:	48 89 c6             	mov    %rax,%rsi
    62bc:	83 e6 07             	and    $0x7,%esi
    62bf:	83 c6 03             	add    $0x3,%esi
    62c2:	40 38 d6             	cmp    %dl,%sil
    62c5:	0f 9d c2             	setge  %dl
    62c8:	21 fa                	and    %edi,%edx
    62ca:	84 d2                	test   %dl,%dl
    62cc:	74 08                	je     62d6 <jstring_concatenate_jstring+0x82e>
    62ce:	48 89 c7             	mov    %rax,%rdi
    62d1:	e8 5a dd ff ff       	call   4030 <__asan_report_store4@plt>
    62d6:	48 8b 85 58 ff ff ff 	mov    -0xa8(%rbp),%rax
    62dd:	89 48 04             	mov    %ecx,0x4(%rax)
    62e0:	b8 01 00 00 00       	mov    $0x1,%eax
    62e5:	89 c2                	mov    %eax,%edx
    62e7:	4d 39 e6             	cmp    %r12,%r14
    62ea:	74 23                	je     630f <jstring_concatenate_jstring+0x867>
    62ec:	49 c7 04 24 0e 36 e0 	movq   $0x45e0360e,(%r12)
    62f3:	45 
    62f4:	48 b8 f5 f5 f5 f5 f5 	movabs $0xf5f5f5f5f5f5f5f5,%rax
    62fb:	f5 f5 f5 
    62fe:	49 89 85 00 80 ff 7f 	mov    %rax,0x7fff8000(%r13)
    6305:	49 8b 44 24 38       	mov    0x38(%r12),%rax
    630a:	c6 00 00             	movb   $0x0,(%rax)
    630d:	eb 0b                	jmp    631a <jstring_concatenate_jstring+0x872>
    630f:	49 c7 85 00 80 ff 7f 	movq   $0x0,0x7fff8000(%r13)
    6316:	00 00 00 00 
    631a:	48 8b 45 d8          	mov    -0x28(%rbp),%rax
    631e:	64 48 2b 04 25 28 00 	sub    %fs:0x28,%rax
    6325:	00 00 
    6327:	74 05                	je     632e <jstring_concatenate_jstring+0x886>
    6329:	e8 32 de ff ff       	call   4160 <__stack_chk_fail@plt>
    632e:	89 d0                	mov    %edx,%eax
    6330:	48 81 c4 a0 00 00 00 	add    $0xa0,%rsp
    6337:	5b                   	pop    %rbx
    6338:	41 5c                	pop    %r12
    633a:	41 5d                	pop    %r13
    633c:	41 5e                	pop    %r14
    633e:	5d                   	pop    %rbp
    633f:	c3                   	ret

0000000000006340 <jstring_concatenate_raw>:
    6340:	55                   	push   %rbp
    6341:	48 89 e5             	mov    %rsp,%rbp
    6344:	48 83 ec 30          	sub    $0x30,%rsp
    6348:	48 89 7d d8          	mov    %rdi,-0x28(%rbp)
    634c:	48 89 75 d0          	mov    %rsi,-0x30(%rbp)
    6350:	48 8b 45 d0          	mov    -0x30(%rbp),%rax
    6354:	48 89 c7             	mov    %rax,%rdi
    6357:	e8 cf e7 ff ff       	call   4b2b <jstring_length>
    635c:	89 45 ec             	mov    %eax,-0x14(%rbp)
    635f:	8b 05 33 4f 01 00    	mov    0x14f33(%rip),%eax        # 1b298 <jstring_temporary_memory_info+0x18>
    6365:	85 c0                	test   %eax,%eax
    6367:	75 6b                	jne    63d4 <jstring_concatenate_raw+0x94>
    6369:	4c 8b 05 d0 2d 01 00 	mov    0x12dd0(%rip),%r8        # 19140 <jstring_log>
    6370:	48 8d 15 29 d2 00 00 	lea    0xd229(%rip),%rdx        # 135a0 <_IO_stdin_used+0x5a0>
    6377:	48 8d 35 a2 d3 00 00 	lea    0xd3a2(%rip),%rsi        # 13720 <_IO_stdin_used+0x720>
    637e:	48 8d 05 9b d2 00 00 	lea    0xd29b(%rip),%rax        # 13620 <_IO_stdin_used+0x620>
    6385:	b9 e9 01 00 00       	mov    $0x1e9,%ecx
    638a:	48 89 c7             	mov    %rax,%rdi
    638d:	b8 00 00 00 00       	mov    $0x0,%eax
    6392:	41 ff d0             	call   *%r8
    6395:	b9 00 00 00 00       	mov    $0x0,%ecx
    639a:	48 89 c8             	mov    %rcx,%rax
    639d:	48 89 c2             	mov    %rax,%rdx
    63a0:	48 c1 ea 03          	shr    $0x3,%rdx
    63a4:	48 81 c2 00 80 ff 7f 	add    $0x7fff8000,%rdx
    63ab:	0f b6 12             	movzbl (%rdx),%edx
    63ae:	84 d2                	test   %dl,%dl
    63b0:	40 0f 95 c6          	setne  %sil
    63b4:	48 89 c7             	mov    %rax,%rdi
    63b7:	83 e7 07             	and    $0x7,%edi
    63ba:	40 38 d7             	cmp    %dl,%dil
    63bd:	0f 9d c2             	setge  %dl
    63c0:	21 f2                	and    %esi,%edx
    63c2:	84 d2                	test   %dl,%dl
    63c4:	74 08                	je     63ce <jstring_concatenate_raw+0x8e>
    63c6:	48 89 c7             	mov    %rax,%rdi
    63c9:	e8 c2 dd ff ff       	call   4190 <__asan_report_load1@plt>
    63ce:	0f b6 01             	movzbl (%rcx),%eax
    63d1:	88 45 e3             	mov    %al,-0x1d(%rbp)
    63d4:	48 8b 45 d8          	mov    -0x28(%rbp),%rax
    63d8:	48 89 c2             	mov    %rax,%rdx
    63db:	48 89 d0             	mov    %rdx,%rax
    63de:	48 c1 e8 03          	shr    $0x3,%rax
    63e2:	48 05 00 80 ff 7f    	add    $0x7fff8000,%rax
    63e8:	0f b6 00             	movzbl (%rax),%eax
    63eb:	84 c0                	test   %al,%al
    63ed:	0f 95 c1             	setne  %cl
    63f0:	3c 03                	cmp    $0x3,%al
    63f2:	0f 9e c0             	setle  %al
    63f5:	21 c8                	and    %ecx,%eax
    63f7:	84 c0                	test   %al,%al
    63f9:	74 08                	je     6403 <jstring_concatenate_raw+0xc3>
    63fb:	48 89 d7             	mov    %rdx,%rdi
    63fe:	e8 ed dc ff ff       	call   40f0 <__asan_report_load4@plt>
    6403:	48 8b 45 d8          	mov    -0x28(%rbp),%rax
    6407:	8b 10                	mov    (%rax),%edx
    6409:	8b 45 ec             	mov    -0x14(%rbp),%eax
    640c:	8d 0c 02             	lea    (%rdx,%rax,1),%ecx
    640f:	48 8b 45 d8          	mov    -0x28(%rbp),%rax
    6413:	48 83 c0 04          	add    $0x4,%rax
    6417:	48 89 c2             	mov    %rax,%rdx
    641a:	48 c1 ea 03          	shr    $0x3,%rdx
    641e:	48 81 c2 00 80 ff 7f 	add    $0x7fff8000,%rdx
    6425:	0f b6 12             	movzbl (%rdx),%edx
    6428:	84 d2                	test   %dl,%dl
    642a:	40 0f 95 c7          	setne  %dil
    642e:	48 89 c6             	mov    %rax,%rsi
    6431:	83 e6 07             	and    $0x7,%esi
    6434:	83 c6 03             	add    $0x3,%esi
    6437:	40 38 d6             	cmp    %dl,%sil
    643a:	0f 9d c2             	setge  %dl
    643d:	21 fa                	and    %edi,%edx
    643f:	84 d2                	test   %dl,%dl
    6441:	74 08                	je     644b <jstring_concatenate_raw+0x10b>
    6443:	48 89 c7             	mov    %rax,%rdi
    6446:	e8 a5 dc ff ff       	call   40f0 <__asan_report_load4@plt>
    644b:	48 8b 45 d8          	mov    -0x28(%rbp),%rax
    644f:	8b 40 04             	mov    0x4(%rax),%eax
    6452:	39 c1                	cmp    %eax,%ecx
    6454:	0f 83 23 01 00 00    	jae    657d <jstring_concatenate_raw+0x23d>
    645a:	48 8b 45 d8          	mov    -0x28(%rbp),%rax
    645e:	48 83 c0 08          	add    $0x8,%rax
    6462:	48 89 c2             	mov    %rax,%rdx
    6465:	48 c1 ea 03          	shr    $0x3,%rdx
    6469:	48 81 c2 00 80 ff 7f 	add    $0x7fff8000,%rdx
    6470:	0f b6 12             	movzbl (%rdx),%edx
    6473:	84 d2                	test   %dl,%dl
    6475:	74 08                	je     647f <jstring_concatenate_raw+0x13f>
    6477:	48 89 c7             	mov    %rax,%rdi
    647a:	e8 41 dd ff ff       	call   41c0 <__asan_report_load8@plt>
    647f:	48 8b 45 d8          	mov    -0x28(%rbp),%rax
    6483:	48 8b 50 08          	mov    0x8(%rax),%rdx
    6487:	48 8b 45 d8          	mov    -0x28(%rbp),%rax
    648b:	8b 00                	mov    (%rax),%eax
    648d:	89 c0                	mov    %eax,%eax
    648f:	48 01 d0             	add    %rdx,%rax
    6492:	48 89 45 f8          	mov    %rax,-0x8(%rbp)
    6496:	c7 45 e4 00 00 00 00 	movl   $0x0,-0x1c(%rbp)
    649d:	e9 8a 00 00 00       	jmp    652c <jstring_concatenate_raw+0x1ec>
    64a2:	8b 55 e4             	mov    -0x1c(%rbp),%edx
    64a5:	48 8b 45 d0          	mov    -0x30(%rbp),%rax
    64a9:	48 8d 34 02          	lea    (%rdx,%rax,1),%rsi
    64ad:	8b 55 e4             	mov    -0x1c(%rbp),%edx
    64b0:	48 8b 45 f8          	mov    -0x8(%rbp),%rax
    64b4:	48 8d 0c 02          	lea    (%rdx,%rax,1),%rcx
    64b8:	48 89 f0             	mov    %rsi,%rax
    64bb:	48 89 c2             	mov    %rax,%rdx
    64be:	48 c1 ea 03          	shr    $0x3,%rdx
    64c2:	48 81 c2 00 80 ff 7f 	add    $0x7fff8000,%rdx
    64c9:	0f b6 12             	movzbl (%rdx),%edx
    64cc:	84 d2                	test   %dl,%dl
    64ce:	40 0f 95 c7          	setne  %dil
    64d2:	49 89 c0             	mov    %rax,%r8
    64d5:	41 83 e0 07          	and    $0x7,%r8d
    64d9:	41 38 d0             	cmp    %dl,%r8b
    64dc:	0f 9d c2             	setge  %dl
    64df:	21 fa                	and    %edi,%edx
    64e1:	84 d2                	test   %dl,%dl
    64e3:	74 08                	je     64ed <jstring_concatenate_raw+0x1ad>
    64e5:	48 89 c7             	mov    %rax,%rdi
    64e8:	e8 a3 dc ff ff       	call   4190 <__asan_report_load1@plt>
    64ed:	0f b6 36             	movzbl (%rsi),%esi
    64f0:	48 89 c8             	mov    %rcx,%rax
    64f3:	48 89 c2             	mov    %rax,%rdx
    64f6:	48 c1 ea 03          	shr    $0x3,%rdx
    64fa:	48 81 c2 00 80 ff 7f 	add    $0x7fff8000,%rdx
    6501:	0f b6 12             	movzbl (%rdx),%edx
    6504:	84 d2                	test   %dl,%dl
    6506:	40 0f 95 c7          	setne  %dil
    650a:	49 89 c0             	mov    %rax,%r8
    650d:	41 83 e0 07          	and    $0x7,%r8d
    6511:	41 38 d0             	cmp    %dl,%r8b
    6514:	0f 9d c2             	setge  %dl
    6517:	21 fa                	and    %edi,%edx
    6519:	84 d2                	test   %dl,%dl
    651b:	74 08                	je     6525 <jstring_concatenate_raw+0x1e5>
    651d:	48 89 c7             	mov    %rax,%rdi
    6520:	e8 8b dc ff ff       	call   41b0 <__asan_report_store1@plt>
    6525:	40 88 31             	mov    %sil,(%rcx)
    6528:	83 45 e4 01          	addl   $0x1,-0x1c(%rbp)
    652c:	8b 45 e4             	mov    -0x1c(%rbp),%eax
    652f:	39 45 ec             	cmp    %eax,-0x14(%rbp)
    6532:	0f 83 6a ff ff ff    	jae    64a2 <jstring_concatenate_raw+0x162>
    6538:	48 8b 45 d8          	mov    -0x28(%rbp),%rax
    653c:	48 89 c2             	mov    %rax,%rdx
    653f:	48 89 d0             	mov    %rdx,%rax
    6542:	48 c1 e8 03          	shr    $0x3,%rax
    6546:	48 05 00 80 ff 7f    	add    $0x7fff8000,%rax
    654c:	0f b6 00             	movzbl (%rax),%eax
    654f:	84 c0                	test   %al,%al
    6551:	0f 95 c1             	setne  %cl
    6554:	3c 03                	cmp    $0x3,%al
    6556:	0f 9e c0             	setle  %al
    6559:	21 c8                	and    %ecx,%eax
    655b:	84 c0                	test   %al,%al
    655d:	74 08                	je     6567 <jstring_concatenate_raw+0x227>
    655f:	48 89 d7             	mov    %rdx,%rdi
    6562:	e8 89 db ff ff       	call   40f0 <__asan_report_load4@plt>
    6567:	48 8b 45 d8          	mov    -0x28(%rbp),%rax
    656b:	8b 10                	mov    (%rax),%edx
    656d:	8b 45 ec             	mov    -0x14(%rbp),%eax
    6570:	01 c2                	add    %eax,%edx
    6572:	48 8b 45 d8          	mov    -0x28(%rbp),%rax
    6576:	89 10                	mov    %edx,(%rax)
    6578:	e9 b8 02 00 00       	jmp    6835 <jstring_concatenate_raw+0x4f5>
    657d:	48 8b 45 d8          	mov    -0x28(%rbp),%rax
    6581:	48 89 c2             	mov    %rax,%rdx
    6584:	48 89 d0             	mov    %rdx,%rax
    6587:	48 c1 e8 03          	shr    $0x3,%rax
    658b:	48 05 00 80 ff 7f    	add    $0x7fff8000,%rax
    6591:	0f b6 00             	movzbl (%rax),%eax
    6594:	84 c0                	test   %al,%al
    6596:	0f 95 c1             	setne  %cl
    6599:	3c 03                	cmp    $0x3,%al
    659b:	0f 9e c0             	setle  %al
    659e:	21 c8                	and    %ecx,%eax
    65a0:	84 c0                	test   %al,%al
    65a2:	74 08                	je     65ac <jstring_concatenate_raw+0x26c>
    65a4:	48 89 d7             	mov    %rdx,%rdi
    65a7:	e8 44 db ff ff       	call   40f0 <__asan_report_load4@plt>
    65ac:	48 8b 45 d8          	mov    -0x28(%rbp),%rax
    65b0:	8b 10                	mov    (%rax),%edx
    65b2:	8b 45 ec             	mov    -0x14(%rbp),%eax
    65b5:	01 d0                	add    %edx,%eax
    65b7:	83 c0 01             	add    $0x1,%eax
    65ba:	01 c0                	add    %eax,%eax
    65bc:	89 c0                	mov    %eax,%eax
    65be:	48 89 c7             	mov    %rax,%rdi
    65c1:	e8 11 df ff ff       	call   44d7 <jstring_temporary_memory_allocate_string>
    65c6:	48 89 45 f0          	mov    %rax,-0x10(%rbp)
    65ca:	c7 45 e8 00 00 00 00 	movl   $0x0,-0x18(%rbp)
    65d1:	e9 b3 00 00 00       	jmp    6689 <jstring_concatenate_raw+0x349>
    65d6:	48 8b 45 d8          	mov    -0x28(%rbp),%rax
    65da:	48 83 c0 08          	add    $0x8,%rax
    65de:	48 89 c2             	mov    %rax,%rdx
    65e1:	48 c1 ea 03          	shr    $0x3,%rdx
    65e5:	48 81 c2 00 80 ff 7f 	add    $0x7fff8000,%rdx
    65ec:	0f b6 12             	movzbl (%rdx),%edx
    65ef:	84 d2                	test   %dl,%dl
    65f1:	74 08                	je     65fb <jstring_concatenate_raw+0x2bb>
    65f3:	48 89 c7             	mov    %rax,%rdi
    65f6:	e8 c5 db ff ff       	call   41c0 <__asan_report_load8@plt>
    65fb:	48 8b 45 d8          	mov    -0x28(%rbp),%rax
    65ff:	48 8b 50 08          	mov    0x8(%rax),%rdx
    6603:	8b 45 e8             	mov    -0x18(%rbp),%eax
    6606:	48 8d 34 02          	lea    (%rdx,%rax,1),%rsi
    660a:	8b 55 e8             	mov    -0x18(%rbp),%edx
    660d:	48 8b 45 f0          	mov    -0x10(%rbp),%rax
    6611:	48 8d 0c 02          	lea    (%rdx,%rax,1),%rcx
    6615:	48 89 f0             	mov    %rsi,%rax
    6618:	48 89 c2             	mov    %rax,%rdx
    661b:	48 c1 ea 03          	shr    $0x3,%rdx
    661f:	48 81 c2 00 80 ff 7f 	add    $0x7fff8000,%rdx
    6626:	0f b6 12             	movzbl (%rdx),%edx
    6629:	84 d2                	test   %dl,%dl
    662b:	40 0f 95 c7          	setne  %dil
    662f:	49 89 c0             	mov    %rax,%r8
    6632:	41 83 e0 07          	and    $0x7,%r8d
    6636:	41 38 d0             	cmp    %dl,%r8b
    6639:	0f 9d c2             	setge  %dl
    663c:	21 fa                	and    %edi,%edx
    663e:	84 d2                	test   %dl,%dl
    6640:	74 08                	je     664a <jstring_concatenate_raw+0x30a>
    6642:	48 89 c7             	mov    %rax,%rdi
    6645:	e8 46 db ff ff       	call   4190 <__asan_report_load1@plt>
    664a:	0f b6 36             	movzbl (%rsi),%esi
    664d:	48 89 c8             	mov    %rcx,%rax
    6650:	48 89 c2             	mov    %rax,%rdx
    6653:	48 c1 ea 03          	shr    $0x3,%rdx
    6657:	48 81 c2 00 80 ff 7f 	add    $0x7fff8000,%rdx
    665e:	0f b6 12             	movzbl (%rdx),%edx
    6661:	84 d2                	test   %dl,%dl
    6663:	40 0f 95 c7          	setne  %dil
    6667:	49 89 c0             	mov    %rax,%r8
    666a:	41 83 e0 07          	and    $0x7,%r8d
    666e:	41 38 d0             	cmp    %dl,%r8b
    6671:	0f 9d c2             	setge  %dl
    6674:	21 fa                	and    %edi,%edx
    6676:	84 d2                	test   %dl,%dl
    6678:	74 08                	je     6682 <jstring_concatenate_raw+0x342>
    667a:	48 89 c7             	mov    %rax,%rdi
    667d:	e8 2e db ff ff       	call   41b0 <__asan_report_store1@plt>
    6682:	40 88 31             	mov    %sil,(%rcx)
    6685:	83 45 e8 01          	addl   $0x1,-0x18(%rbp)
    6689:	48 8b 45 d8          	mov    -0x28(%rbp),%rax
    668d:	48 89 c2             	mov    %rax,%rdx
    6690:	48 89 d0             	mov    %rdx,%rax
    6693:	48 c1 e8 03          	shr    $0x3,%rax
    6697:	48 05 00 80 ff 7f    	add    $0x7fff8000,%rax
    669d:	0f b6 00             	movzbl (%rax),%eax
    66a0:	84 c0                	test   %al,%al
    66a2:	0f 95 c1             	setne  %cl
    66a5:	3c 03                	cmp    $0x3,%al
    66a7:	0f 9e c0             	setle  %al
    66aa:	21 c8                	and    %ecx,%eax
    66ac:	84 c0                	test   %al,%al
    66ae:	74 08                	je     66b8 <jstring_concatenate_raw+0x378>
    66b0:	48 89 d7             	mov    %rdx,%rdi
    66b3:	e8 38 da ff ff       	call   40f0 <__asan_report_load4@plt>
    66b8:	48 8b 45 d8          	mov    -0x28(%rbp),%rax
    66bc:	8b 00                	mov    (%rax),%eax
    66be:	39 45 e8             	cmp    %eax,-0x18(%rbp)
    66c1:	0f 82 0f ff ff ff    	jb     65d6 <jstring_concatenate_raw+0x296>
    66c7:	48 8b 45 d8          	mov    -0x28(%rbp),%rax
    66cb:	48 83 c0 08          	add    $0x8,%rax
    66cf:	48 89 c2             	mov    %rax,%rdx
    66d2:	48 c1 ea 03          	shr    $0x3,%rdx
    66d6:	48 81 c2 00 80 ff 7f 	add    $0x7fff8000,%rdx
    66dd:	0f b6 12             	movzbl (%rdx),%edx
    66e0:	84 d2                	test   %dl,%dl
    66e2:	74 08                	je     66ec <jstring_concatenate_raw+0x3ac>
    66e4:	48 89 c7             	mov    %rax,%rdi
    66e7:	e8 54 da ff ff       	call   4140 <__asan_report_store8@plt>
    66ec:	48 8b 45 d8          	mov    -0x28(%rbp),%rax
    66f0:	48 8b 55 f0          	mov    -0x10(%rbp),%rdx
    66f4:	48 89 50 08          	mov    %rdx,0x8(%rax)
    66f8:	48 8b 45 d8          	mov    -0x28(%rbp),%rax
    66fc:	8b 00                	mov    (%rax),%eax
    66fe:	89 c0                	mov    %eax,%eax
    6700:	48 01 45 f0          	add    %rax,-0x10(%rbp)
    6704:	c7 45 e8 00 00 00 00 	movl   $0x0,-0x18(%rbp)
    670b:	e9 8a 00 00 00       	jmp    679a <jstring_concatenate_raw+0x45a>
    6710:	8b 55 e8             	mov    -0x18(%rbp),%edx
    6713:	48 8b 45 d0          	mov    -0x30(%rbp),%rax
    6717:	48 8d 34 02          	lea    (%rdx,%rax,1),%rsi
    671b:	8b 55 e8             	mov    -0x18(%rbp),%edx
    671e:	48 8b 45 f0          	mov    -0x10(%rbp),%rax
    6722:	48 8d 0c 02          	lea    (%rdx,%rax,1),%rcx
    6726:	48 89 f0             	mov    %rsi,%rax
    6729:	48 89 c2             	mov    %rax,%rdx
    672c:	48 c1 ea 03          	shr    $0x3,%rdx
    6730:	48 81 c2 00 80 ff 7f 	add    $0x7fff8000,%rdx
    6737:	0f b6 12             	movzbl (%rdx),%edx
    673a:	84 d2                	test   %dl,%dl
    673c:	40 0f 95 c7          	setne  %dil
    6740:	49 89 c0             	mov    %rax,%r8
    6743:	41 83 e0 07          	and    $0x7,%r8d
    6747:	41 38 d0             	cmp    %dl,%r8b
    674a:	0f 9d c2             	setge  %dl
    674d:	21 fa                	and    %edi,%edx
    674f:	84 d2                	test   %dl,%dl
    6751:	74 08                	je     675b <jstring_concatenate_raw+0x41b>
    6753:	48 89 c7             	mov    %rax,%rdi
    6756:	e8 35 da ff ff       	call   4190 <__asan_report_load1@plt>
    675b:	0f b6 36             	movzbl (%rsi),%esi
    675e:	48 89 c8             	mov    %rcx,%rax
    6761:	48 89 c2             	mov    %rax,%rdx
    6764:	48 c1 ea 03          	shr    $0x3,%rdx
    6768:	48 81 c2 00 80 ff 7f 	add    $0x7fff8000,%rdx
    676f:	0f b6 12             	movzbl (%rdx),%edx
    6772:	84 d2                	test   %dl,%dl
    6774:	40 0f 95 c7          	setne  %dil
    6778:	49 89 c0             	mov    %rax,%r8
    677b:	41 83 e0 07          	and    $0x7,%r8d
    677f:	41 38 d0             	cmp    %dl,%r8b
    6782:	0f 9d c2             	setge  %dl
    6785:	21 fa                	and    %edi,%edx
    6787:	84 d2                	test   %dl,%dl
    6789:	74 08                	je     6793 <jstring_concatenate_raw+0x453>
    678b:	48 89 c7             	mov    %rax,%rdi
    678e:	e8 1d da ff ff       	call   41b0 <__asan_report_store1@plt>
    6793:	40 88 31             	mov    %sil,(%rcx)
    6796:	83 45 e8 01          	addl   $0x1,-0x18(%rbp)
    679a:	8b 45 e8             	mov    -0x18(%rbp),%eax
    679d:	39 45 ec             	cmp    %eax,-0x14(%rbp)
    67a0:	0f 83 6a ff ff ff    	jae    6710 <jstring_concatenate_raw+0x3d0>
    67a6:	48 8b 45 d8          	mov    -0x28(%rbp),%rax
    67aa:	48 89 c2             	mov    %rax,%rdx
    67ad:	48 89 d0             	mov    %rdx,%rax
    67b0:	48 c1 e8 03          	shr    $0x3,%rax
    67b4:	48 05 00 80 ff 7f    	add    $0x7fff8000,%rax
    67ba:	0f b6 00             	movzbl (%rax),%eax
    67bd:	84 c0                	test   %al,%al
    67bf:	0f 95 c1             	setne  %cl
    67c2:	3c 03                	cmp    $0x3,%al
    67c4:	0f 9e c0             	setle  %al
    67c7:	21 c8                	and    %ecx,%eax
    67c9:	84 c0                	test   %al,%al
    67cb:	74 08                	je     67d5 <jstring_concatenate_raw+0x495>
    67cd:	48 89 d7             	mov    %rdx,%rdi
    67d0:	e8 1b d9 ff ff       	call   40f0 <__asan_report_load4@plt>
    67d5:	48 8b 45 d8          	mov    -0x28(%rbp),%rax
    67d9:	8b 10                	mov    (%rax),%edx
    67db:	8b 45 ec             	mov    -0x14(%rbp),%eax
    67de:	01 c2                	add    %eax,%edx
    67e0:	48 8b 45 d8          	mov    -0x28(%rbp),%rax
    67e4:	89 10                	mov    %edx,(%rax)
    67e6:	48 8b 45 d8          	mov    -0x28(%rbp),%rax
    67ea:	8b 00                	mov    (%rax),%eax
    67ec:	83 c0 01             	add    $0x1,%eax
    67ef:	8d 0c 00             	lea    (%rax,%rax,1),%ecx
    67f2:	48 8b 45 d8          	mov    -0x28(%rbp),%rax
    67f6:	48 83 c0 04          	add    $0x4,%rax
    67fa:	48 89 c2             	mov    %rax,%rdx
    67fd:	48 c1 ea 03          	shr    $0x3,%rdx
    6801:	48 81 c2 00 80 ff 7f 	add    $0x7fff8000,%rdx
    6808:	0f b6 12             	movzbl (%rdx),%edx
    680b:	84 d2                	test   %dl,%dl
    680d:	40 0f 95 c7          	setne  %dil
    6811:	48 89 c6             	mov    %rax,%rsi
    6814:	83 e6 07             	and    $0x7,%esi
    6817:	83 c6 03             	add    $0x3,%esi
    681a:	40 38 d6             	cmp    %dl,%sil
    681d:	0f 9d c2             	setge  %dl
    6820:	21 fa                	and    %edi,%edx
    6822:	84 d2                	test   %dl,%dl
    6824:	74 08                	je     682e <jstring_concatenate_raw+0x4ee>
    6826:	48 89 c7             	mov    %rax,%rdi
    6829:	e8 02 d8 ff ff       	call   4030 <__asan_report_store4@plt>
    682e:	48 8b 45 d8          	mov    -0x28(%rbp),%rax
    6832:	89 48 04             	mov    %ecx,0x4(%rax)
    6835:	b8 01 00 00 00       	mov    $0x1,%eax
    683a:	c9                   	leave
    683b:	c3                   	ret

000000000000683c <jstring_begins_with>:
    683c:	55                   	push   %rbp
    683d:	48 89 e5             	mov    %rsp,%rbp
    6840:	41 56                	push   %r14
    6842:	41 55                	push   %r13
    6844:	41 54                	push   %r12
    6846:	53                   	push   %rbx
    6847:	48 81 ec 90 00 00 00 	sub    $0x90,%rsp
    684e:	48 89 f8             	mov    %rdi,%rax
    6851:	48 89 c1             	mov    %rax,%rcx
    6854:	bb 00 00 00 00       	mov    $0x0,%ebx
    6859:	48 89 f3             	mov    %rsi,%rbx
    685c:	48 89 8d 60 ff ff ff 	mov    %rcx,-0xa0(%rbp)
    6863:	48 89 9d 68 ff ff ff 	mov    %rbx,-0x98(%rbp)
    686a:	48 89 95 58 ff ff ff 	mov    %rdx,-0xa8(%rbp)
    6871:	48 8d 5d 80          	lea    -0x80(%rbp),%rbx
    6875:	49 89 de             	mov    %rbx,%r14
    6878:	83 3d e1 49 01 00 00 	cmpl   $0x0,0x149e1(%rip)        # 1b260 <__asan_option_detect_stack_use_after_return@@Base>
    687f:	74 12                	je     6893 <jstring_begins_with+0x57>
    6881:	bf 40 00 00 00       	mov    $0x40,%edi
    6886:	e8 15 d8 ff ff       	call   40a0 <__asan_stack_malloc_0@plt>
    688b:	48 85 c0             	test   %rax,%rax
    688e:	74 03                	je     6893 <jstring_begins_with+0x57>
    6890:	48 89 c3             	mov    %rax,%rbx
    6893:	48 8d 43 60          	lea    0x60(%rbx),%rax
    6897:	49 89 c4             	mov    %rax,%r12
    689a:	48 c7 03 b3 8a b5 41 	movq   $0x41b58ab3,(%rbx)
    68a1:	48 8d 05 b8 ce 00 00 	lea    0xceb8(%rip),%rax        # 13760 <_IO_stdin_used+0x760>
    68a8:	48 89 43 08          	mov    %rax,0x8(%rbx)
    68ac:	48 8d 05 89 ff ff ff 	lea    -0x77(%rip),%rax        # 683c <jstring_begins_with>
    68b3:	48 89 43 10          	mov    %rax,0x10(%rbx)
    68b7:	49 89 dd             	mov    %rbx,%r13
    68ba:	49 c1 ed 03          	shr    $0x3,%r13
    68be:	41 c7 85 00 80 ff 7f 	movl   $0xf1f1f1f1,0x7fff8000(%r13)
    68c5:	f1 f1 f1 f1 
    68c9:	41 c7 85 04 80 ff 7f 	movl   $0xf3f30000,0x7fff8004(%r13)
    68d0:	00 00 f3 f3 
    68d4:	64 48 8b 04 25 28 00 	mov    %fs:0x28,%rax
    68db:	00 00 
    68dd:	48 89 45 d8          	mov    %rax,-0x28(%rbp)
    68e1:	31 c0                	xor    %eax,%eax
    68e3:	48 8b 85 60 ff ff ff 	mov    -0xa0(%rbp),%rax
    68ea:	48 8b 95 68 ff ff ff 	mov    -0x98(%rbp),%rdx
    68f1:	49 89 44 24 c0       	mov    %rax,-0x40(%r12)
    68f6:	49 89 54 24 c8       	mov    %rdx,-0x38(%r12)
    68fb:	48 8b 85 58 ff ff ff 	mov    -0xa8(%rbp),%rax
    6902:	48 89 c7             	mov    %rax,%rdi
    6905:	e8 21 e2 ff ff       	call   4b2b <jstring_length>
    690a:	89 85 7c ff ff ff    	mov    %eax,-0x84(%rbp)
    6910:	49 8d 44 24 c0       	lea    -0x40(%r12),%rax
    6915:	48 89 c2             	mov    %rax,%rdx
    6918:	48 89 d0             	mov    %rdx,%rax
    691b:	48 c1 e8 03          	shr    $0x3,%rax
    691f:	48 05 00 80 ff 7f    	add    $0x7fff8000,%rax
    6925:	0f b6 00             	movzbl (%rax),%eax
    6928:	84 c0                	test   %al,%al
    692a:	0f 95 c1             	setne  %cl
    692d:	3c 03                	cmp    $0x3,%al
    692f:	0f 9e c0             	setle  %al
    6932:	21 c8                	and    %ecx,%eax
    6934:	84 c0                	test   %al,%al
    6936:	74 08                	je     6940 <jstring_begins_with+0x104>
    6938:	48 89 d7             	mov    %rdx,%rdi
    693b:	e8 b0 d7 ff ff       	call   40f0 <__asan_report_load4@plt>
    6940:	41 8b 44 24 c0       	mov    -0x40(%r12),%eax
    6945:	3b 85 7c ff ff ff    	cmp    -0x84(%rbp),%eax
    694b:	73 0a                	jae    6957 <jstring_begins_with+0x11b>
    694d:	b8 00 00 00 00       	mov    $0x0,%eax
    6952:	e9 ee 00 00 00       	jmp    6a45 <jstring_begins_with+0x209>
    6957:	c7 85 78 ff ff ff 00 	movl   $0x0,-0x88(%rbp)
    695e:	00 00 00 
    6961:	eb 1f                	jmp    6982 <jstring_begins_with+0x146>
    6963:	83 85 78 ff ff ff 01 	addl   $0x1,-0x88(%rbp)
    696a:	8b 85 78 ff ff ff    	mov    -0x88(%rbp),%eax
    6970:	3b 85 7c ff ff ff    	cmp    -0x84(%rbp),%eax
    6976:	75 0a                	jne    6982 <jstring_begins_with+0x146>
    6978:	b8 01 00 00 00       	mov    $0x1,%eax
    697d:	e9 c3 00 00 00       	jmp    6a45 <jstring_begins_with+0x209>
    6982:	8b 95 78 ff ff ff    	mov    -0x88(%rbp),%edx
    6988:	48 8b 85 58 ff ff ff 	mov    -0xa8(%rbp),%rax
    698f:	48 8d 0c 02          	lea    (%rdx,%rax,1),%rcx
    6993:	48 89 c8             	mov    %rcx,%rax
    6996:	48 89 c2             	mov    %rax,%rdx
    6999:	48 c1 ea 03          	shr    $0x3,%rdx
    699d:	48 81 c2 00 80 ff 7f 	add    $0x7fff8000,%rdx
    69a4:	0f b6 12             	movzbl (%rdx),%edx
    69a7:	84 d2                	test   %dl,%dl
    69a9:	40 0f 95 c6          	setne  %sil
    69ad:	48 89 c7             	mov    %rax,%rdi
    69b0:	83 e7 07             	and    $0x7,%edi
    69b3:	40 38 d7             	cmp    %dl,%dil
    69b6:	0f 9d c2             	setge  %dl
    69b9:	21 f2                	and    %esi,%edx
    69bb:	84 d2                	test   %dl,%dl
    69bd:	74 08                	je     69c7 <jstring_begins_with+0x18b>
    69bf:	48 89 c7             	mov    %rax,%rdi
    69c2:	e8 c9 d7 ff ff       	call   4190 <__asan_report_load1@plt>
    69c7:	0f b6 31             	movzbl (%rcx),%esi
    69ca:	49 8d 44 24 c0       	lea    -0x40(%r12),%rax
    69cf:	48 83 c0 08          	add    $0x8,%rax
    69d3:	48 89 c2             	mov    %rax,%rdx
    69d6:	48 c1 ea 03          	shr    $0x3,%rdx
    69da:	48 81 c2 00 80 ff 7f 	add    $0x7fff8000,%rdx
    69e1:	0f b6 12             	movzbl (%rdx),%edx
    69e4:	84 d2                	test   %dl,%dl
    69e6:	74 08                	je     69f0 <jstring_begins_with+0x1b4>
    69e8:	48 89 c7             	mov    %rax,%rdi
    69eb:	e8 d0 d7 ff ff       	call   41c0 <__asan_report_load8@plt>
    69f0:	49 8b 54 24 c8       	mov    -0x38(%r12),%rdx
    69f5:	8b 85 78 ff ff ff    	mov    -0x88(%rbp),%eax
    69fb:	48 8d 0c 02          	lea    (%rdx,%rax,1),%rcx
    69ff:	48 89 c8             	mov    %rcx,%rax
    6a02:	48 89 c2             	mov    %rax,%rdx
    6a05:	48 c1 ea 03          	shr    $0x3,%rdx
    6a09:	48 81 c2 00 80 ff 7f 	add    $0x7fff8000,%rdx
    6a10:	0f b6 12             	movzbl (%rdx),%edx
    6a13:	84 d2                	test   %dl,%dl
    6a15:	40 0f 95 c7          	setne  %dil
    6a19:	49 89 c0             	mov    %rax,%r8
    6a1c:	41 83 e0 07          	and    $0x7,%r8d
    6a20:	41 38 d0             	cmp    %dl,%r8b
    6a23:	0f 9d c2             	setge  %dl
    6a26:	21 fa                	and    %edi,%edx
    6a28:	84 d2                	test   %dl,%dl
    6a2a:	74 08                	je     6a34 <jstring_begins_with+0x1f8>
    6a2c:	48 89 c7             	mov    %rax,%rdi
    6a2f:	e8 5c d7 ff ff       	call   4190 <__asan_report_load1@plt>
    6a34:	0f b6 01             	movzbl (%rcx),%eax
    6a37:	40 38 c6             	cmp    %al,%sil
    6a3a:	0f 84 23 ff ff ff    	je     6963 <jstring_begins_with+0x127>
    6a40:	b8 00 00 00 00       	mov    $0x0,%eax
    6a45:	89 c2                	mov    %eax,%edx
    6a47:	49 39 de             	cmp    %rbx,%r14
    6a4a:	74 21                	je     6a6d <jstring_begins_with+0x231>
    6a4c:	48 c7 03 0e 36 e0 45 	movq   $0x45e0360e,(%rbx)
    6a53:	48 b8 f5 f5 f5 f5 f5 	movabs $0xf5f5f5f5f5f5f5f5,%rax
    6a5a:	f5 f5 f5 
    6a5d:	49 89 85 00 80 ff 7f 	mov    %rax,0x7fff8000(%r13)
    6a64:	48 8b 43 38          	mov    0x38(%rbx),%rax
    6a68:	c6 00 00             	movb   $0x0,(%rax)
    6a6b:	eb 0b                	jmp    6a78 <jstring_begins_with+0x23c>
    6a6d:	49 c7 85 00 80 ff 7f 	movq   $0x0,0x7fff8000(%r13)
    6a74:	00 00 00 00 
    6a78:	48 8b 45 d8          	mov    -0x28(%rbp),%rax
    6a7c:	64 48 2b 04 25 28 00 	sub    %fs:0x28,%rax
    6a83:	00 00 
    6a85:	74 05                	je     6a8c <jstring_begins_with+0x250>
    6a87:	e8 d4 d6 ff ff       	call   4160 <__stack_chk_fail@plt>
    6a8c:	89 d0                	mov    %edx,%eax
    6a8e:	48 81 c4 90 00 00 00 	add    $0x90,%rsp
    6a95:	5b                   	pop    %rbx
    6a96:	41 5c                	pop    %r12
    6a98:	41 5d                	pop    %r13
    6a9a:	41 5e                	pop    %r14
    6a9c:	5d                   	pop    %rbp
    6a9d:	c3                   	ret

0000000000006a9e <jstring_ends_with>:
    6a9e:	55                   	push   %rbp
    6a9f:	48 89 e5             	mov    %rsp,%rbp
    6aa2:	41 56                	push   %r14
    6aa4:	41 55                	push   %r13
    6aa6:	41 54                	push   %r12
    6aa8:	53                   	push   %rbx
    6aa9:	48 81 ec 90 00 00 00 	sub    $0x90,%rsp
    6ab0:	48 89 f8             	mov    %rdi,%rax
    6ab3:	48 89 c1             	mov    %rax,%rcx
    6ab6:	bb 00 00 00 00       	mov    $0x0,%ebx
    6abb:	48 89 f3             	mov    %rsi,%rbx
    6abe:	48 89 8d 60 ff ff ff 	mov    %rcx,-0xa0(%rbp)
    6ac5:	48 89 9d 68 ff ff ff 	mov    %rbx,-0x98(%rbp)
    6acc:	48 89 95 58 ff ff ff 	mov    %rdx,-0xa8(%rbp)
    6ad3:	48 8d 5d 80          	lea    -0x80(%rbp),%rbx
    6ad7:	49 89 de             	mov    %rbx,%r14
    6ada:	83 3d 7f 47 01 00 00 	cmpl   $0x0,0x1477f(%rip)        # 1b260 <__asan_option_detect_stack_use_after_return@@Base>
    6ae1:	74 12                	je     6af5 <jstring_ends_with+0x57>
    6ae3:	bf 40 00 00 00       	mov    $0x40,%edi
    6ae8:	e8 b3 d5 ff ff       	call   40a0 <__asan_stack_malloc_0@plt>
    6aed:	48 85 c0             	test   %rax,%rax
    6af0:	74 03                	je     6af5 <jstring_ends_with+0x57>
    6af2:	48 89 c3             	mov    %rax,%rbx
    6af5:	48 8d 43 60          	lea    0x60(%rbx),%rax
    6af9:	49 89 c4             	mov    %rax,%r12
    6afc:	48 c7 03 b3 8a b5 41 	movq   $0x41b58ab3,(%rbx)
    6b03:	48 8d 05 6c cc 00 00 	lea    0xcc6c(%rip),%rax        # 13776 <_IO_stdin_used+0x776>
    6b0a:	48 89 43 08          	mov    %rax,0x8(%rbx)
    6b0e:	48 8d 05 89 ff ff ff 	lea    -0x77(%rip),%rax        # 6a9e <jstring_ends_with>
    6b15:	48 89 43 10          	mov    %rax,0x10(%rbx)
    6b19:	49 89 dd             	mov    %rbx,%r13
    6b1c:	49 c1 ed 03          	shr    $0x3,%r13
    6b20:	41 c7 85 00 80 ff 7f 	movl   $0xf1f1f1f1,0x7fff8000(%r13)
    6b27:	f1 f1 f1 f1 
    6b2b:	41 c7 85 04 80 ff 7f 	movl   $0xf3f30000,0x7fff8004(%r13)
    6b32:	00 00 f3 f3 
    6b36:	64 48 8b 04 25 28 00 	mov    %fs:0x28,%rax
    6b3d:	00 00 
    6b3f:	48 89 45 d8          	mov    %rax,-0x28(%rbp)
    6b43:	31 c0                	xor    %eax,%eax
    6b45:	48 8b 85 60 ff ff ff 	mov    -0xa0(%rbp),%rax
    6b4c:	48 8b 95 68 ff ff ff 	mov    -0x98(%rbp),%rdx
    6b53:	49 89 44 24 c0       	mov    %rax,-0x40(%r12)
    6b58:	49 89 54 24 c8       	mov    %rdx,-0x38(%r12)
    6b5d:	48 8b 85 58 ff ff ff 	mov    -0xa8(%rbp),%rax
    6b64:	48 89 c7             	mov    %rax,%rdi
    6b67:	e8 bf df ff ff       	call   4b2b <jstring_length>
    6b6c:	89 85 7c ff ff ff    	mov    %eax,-0x84(%rbp)
    6b72:	49 8d 44 24 c0       	lea    -0x40(%r12),%rax
    6b77:	48 89 c2             	mov    %rax,%rdx
    6b7a:	48 89 d0             	mov    %rdx,%rax
    6b7d:	48 c1 e8 03          	shr    $0x3,%rax
    6b81:	48 05 00 80 ff 7f    	add    $0x7fff8000,%rax
    6b87:	0f b6 00             	movzbl (%rax),%eax
    6b8a:	84 c0                	test   %al,%al
    6b8c:	0f 95 c1             	setne  %cl
    6b8f:	3c 03                	cmp    $0x3,%al
    6b91:	0f 9e c0             	setle  %al
    6b94:	21 c8                	and    %ecx,%eax
    6b96:	84 c0                	test   %al,%al
    6b98:	74 08                	je     6ba2 <jstring_ends_with+0x104>
    6b9a:	48 89 d7             	mov    %rdx,%rdi
    6b9d:	e8 4e d5 ff ff       	call   40f0 <__asan_report_load4@plt>
    6ba2:	41 8b 44 24 c0       	mov    -0x40(%r12),%eax
    6ba7:	3b 85 7c ff ff ff    	cmp    -0x84(%rbp),%eax
    6bad:	73 0a                	jae    6bb9 <jstring_ends_with+0x11b>
    6baf:	b8 00 00 00 00       	mov    $0x0,%eax
    6bb4:	e9 2f 01 00 00       	jmp    6ce8 <jstring_ends_with+0x24a>
    6bb9:	c7 85 78 ff ff ff 00 	movl   $0x0,-0x88(%rbp)
    6bc0:	00 00 00 
    6bc3:	eb 1f                	jmp    6be4 <jstring_ends_with+0x146>
    6bc5:	83 85 78 ff ff ff 01 	addl   $0x1,-0x88(%rbp)
    6bcc:	8b 85 78 ff ff ff    	mov    -0x88(%rbp),%eax
    6bd2:	3b 85 7c ff ff ff    	cmp    -0x84(%rbp),%eax
    6bd8:	75 0a                	jne    6be4 <jstring_ends_with+0x146>
    6bda:	b8 01 00 00 00       	mov    $0x1,%eax
    6bdf:	e9 04 01 00 00       	jmp    6ce8 <jstring_ends_with+0x24a>
    6be4:	8b 95 78 ff ff ff    	mov    -0x88(%rbp),%edx
    6bea:	48 8b 85 58 ff ff ff 	mov    -0xa8(%rbp),%rax
    6bf1:	48 8d 0c 02          	lea    (%rdx,%rax,1),%rcx
    6bf5:	48 89 c8             	mov    %rcx,%rax
    6bf8:	48 89 c2             	mov    %rax,%rdx
    6bfb:	48 c1 ea 03          	shr    $0x3,%rdx
    6bff:	48 81 c2 00 80 ff 7f 	add    $0x7fff8000,%rdx
    6c06:	0f b6 12             	movzbl (%rdx),%edx
    6c09:	84 d2                	test   %dl,%dl
    6c0b:	40 0f 95 c6          	setne  %sil
    6c0f:	48 89 c7             	mov    %rax,%rdi
    6c12:	83 e7 07             	and    $0x7,%edi
    6c15:	40 38 d7             	cmp    %dl,%dil
    6c18:	0f 9d c2             	setge  %dl
    6c1b:	21 f2                	and    %esi,%edx
    6c1d:	84 d2                	test   %dl,%dl
    6c1f:	74 08                	je     6c29 <jstring_ends_with+0x18b>
    6c21:	48 89 c7             	mov    %rax,%rdi
    6c24:	e8 67 d5 ff ff       	call   4190 <__asan_report_load1@plt>
    6c29:	0f b6 31             	movzbl (%rcx),%esi
    6c2c:	49 8d 44 24 c0       	lea    -0x40(%r12),%rax
    6c31:	48 83 c0 08          	add    $0x8,%rax
    6c35:	48 89 c2             	mov    %rax,%rdx
    6c38:	48 c1 ea 03          	shr    $0x3,%rdx
    6c3c:	48 81 c2 00 80 ff 7f 	add    $0x7fff8000,%rdx
    6c43:	0f b6 12             	movzbl (%rdx),%edx
    6c46:	84 d2                	test   %dl,%dl
    6c48:	74 08                	je     6c52 <jstring_ends_with+0x1b4>
    6c4a:	48 89 c7             	mov    %rax,%rdi
    6c4d:	e8 6e d5 ff ff       	call   41c0 <__asan_report_load8@plt>
    6c52:	49 8b 4c 24 c8       	mov    -0x38(%r12),%rcx
    6c57:	49 8d 44 24 c0       	lea    -0x40(%r12),%rax
    6c5c:	48 89 c2             	mov    %rax,%rdx
    6c5f:	48 89 d0             	mov    %rdx,%rax
    6c62:	48 c1 e8 03          	shr    $0x3,%rax
    6c66:	48 05 00 80 ff 7f    	add    $0x7fff8000,%rax
    6c6c:	0f b6 00             	movzbl (%rax),%eax
    6c6f:	84 c0                	test   %al,%al
    6c71:	40 0f 95 c7          	setne  %dil
    6c75:	3c 03                	cmp    $0x3,%al
    6c77:	0f 9e c0             	setle  %al
    6c7a:	21 f8                	and    %edi,%eax
    6c7c:	84 c0                	test   %al,%al
    6c7e:	74 08                	je     6c88 <jstring_ends_with+0x1ea>
    6c80:	48 89 d7             	mov    %rdx,%rdi
    6c83:	e8 68 d4 ff ff       	call   40f0 <__asan_report_load4@plt>
    6c88:	41 8b 44 24 c0       	mov    -0x40(%r12),%eax
    6c8d:	2b 85 7c ff ff ff    	sub    -0x84(%rbp),%eax
    6c93:	89 c2                	mov    %eax,%edx
    6c95:	8b 85 78 ff ff ff    	mov    -0x88(%rbp),%eax
    6c9b:	01 d0                	add    %edx,%eax
    6c9d:	89 c0                	mov    %eax,%eax
    6c9f:	48 01 c1             	add    %rax,%rcx
    6ca2:	48 89 c8             	mov    %rcx,%rax
    6ca5:	48 89 c2             	mov    %rax,%rdx
    6ca8:	48 c1 ea 03          	shr    $0x3,%rdx
    6cac:	48 81 c2 00 80 ff 7f 	add    $0x7fff8000,%rdx
    6cb3:	0f b6 12             	movzbl (%rdx),%edx
    6cb6:	84 d2                	test   %dl,%dl
    6cb8:	40 0f 95 c7          	setne  %dil
    6cbc:	49 89 c0             	mov    %rax,%r8
    6cbf:	41 83 e0 07          	and    $0x7,%r8d
    6cc3:	41 38 d0             	cmp    %dl,%r8b
    6cc6:	0f 9d c2             	setge  %dl
    6cc9:	21 fa                	and    %edi,%edx
    6ccb:	84 d2                	test   %dl,%dl
    6ccd:	74 08                	je     6cd7 <jstring_ends_with+0x239>
    6ccf:	48 89 c7             	mov    %rax,%rdi
    6cd2:	e8 b9 d4 ff ff       	call   4190 <__asan_report_load1@plt>
    6cd7:	0f b6 01             	movzbl (%rcx),%eax
    6cda:	40 38 c6             	cmp    %al,%sil
    6cdd:	0f 84 e2 fe ff ff    	je     6bc5 <jstring_ends_with+0x127>
    6ce3:	b8 00 00 00 00       	mov    $0x0,%eax
    6ce8:	89 c2                	mov    %eax,%edx
    6cea:	49 39 de             	cmp    %rbx,%r14
    6ced:	74 21                	je     6d10 <jstring_ends_with+0x272>
    6cef:	48 c7 03 0e 36 e0 45 	movq   $0x45e0360e,(%rbx)
    6cf6:	48 b8 f5 f5 f5 f5 f5 	movabs $0xf5f5f5f5f5f5f5f5,%rax
    6cfd:	f5 f5 f5 
    6d00:	49 89 85 00 80 ff 7f 	mov    %rax,0x7fff8000(%r13)
    6d07:	48 8b 43 38          	mov    0x38(%rbx),%rax
    6d0b:	c6 00 00             	movb   $0x0,(%rax)
    6d0e:	eb 0b                	jmp    6d1b <jstring_ends_with+0x27d>
    6d10:	49 c7 85 00 80 ff 7f 	movq   $0x0,0x7fff8000(%r13)
    6d17:	00 00 00 00 
    6d1b:	48 8b 45 d8          	mov    -0x28(%rbp),%rax
    6d1f:	64 48 2b 04 25 28 00 	sub    %fs:0x28,%rax
    6d26:	00 00 
    6d28:	74 05                	je     6d2f <jstring_ends_with+0x291>
    6d2a:	e8 31 d4 ff ff       	call   4160 <__stack_chk_fail@plt>
    6d2f:	89 d0                	mov    %edx,%eax
    6d31:	48 81 c4 90 00 00 00 	add    $0x90,%rsp
    6d38:	5b                   	pop    %rbx
    6d39:	41 5c                	pop    %r12
    6d3b:	41 5d                	pop    %r13
    6d3d:	41 5e                	pop    %r14
    6d3f:	5d                   	pop    %rbp
    6d40:	c3                   	ret

0000000000006d41 <jstring_create_integer>:
    6d41:	55                   	push   %rbp
    6d42:	48 89 e5             	mov    %rsp,%rbp
    6d45:	41 56                	push   %r14
    6d47:	41 55                	push   %r13
    6d49:	41 54                	push   %r12
    6d4b:	53                   	push   %rbx
    6d4c:	48 83 c4 80          	add    $0xffffffffffffff80,%rsp
    6d50:	48 89 bd 68 ff ff ff 	mov    %rdi,-0x98(%rbp)
    6d57:	89 b5 64 ff ff ff    	mov    %esi,-0x9c(%rbp)
    6d5d:	4c 8d 65 a0          	lea    -0x60(%rbp),%r12
    6d61:	4d 89 e6             	mov    %r12,%r14
    6d64:	83 3d f5 44 01 00 00 	cmpl   $0x0,0x144f5(%rip)        # 1b260 <__asan_option_detect_stack_use_after_return@@Base>
    6d6b:	74 12                	je     6d7f <jstring_create_integer+0x3e>
    6d6d:	bf 40 00 00 00       	mov    $0x40,%edi
    6d72:	e8 29 d3 ff ff       	call   40a0 <__asan_stack_malloc_0@plt>
    6d77:	48 85 c0             	test   %rax,%rax
    6d7a:	74 03                	je     6d7f <jstring_create_integer+0x3e>
    6d7c:	49 89 c4             	mov    %rax,%r12
    6d7f:	49 8d 44 24 40       	lea    0x40(%r12),%rax
    6d84:	48 89 c3             	mov    %rax,%rbx
    6d87:	49 c7 04 24 b3 8a b5 	movq   $0x41b58ab3,(%r12)
    6d8e:	41 
    6d8f:	48 8d 05 f6 c9 00 00 	lea    0xc9f6(%rip),%rax        # 1378c <_IO_stdin_used+0x78c>
    6d96:	49 89 44 24 08       	mov    %rax,0x8(%r12)
    6d9b:	48 8d 05 9f ff ff ff 	lea    -0x61(%rip),%rax        # 6d41 <jstring_create_integer>
    6da2:	49 89 44 24 10       	mov    %rax,0x10(%r12)
    6da7:	4d 89 e5             	mov    %r12,%r13
    6daa:	49 c1 ed 03          	shr    $0x3,%r13
    6dae:	41 c7 85 00 80 ff 7f 	movl   $0xf1f1f1f1,0x7fff8000(%r13)
    6db5:	f1 f1 f1 f1 
    6db9:	41 c7 85 04 80 ff 7f 	movl   $0xf3f30000,0x7fff8004(%r13)
    6dc0:	00 00 f3 f3 
    6dc4:	48 83 bd 68 ff ff ff 	cmpq   $0x0,-0x98(%rbp)
    6dcb:	00 
    6dcc:	0f 85 ce 00 00 00    	jne    6ea0 <jstring_create_integer+0x15f>
    6dd2:	bf 04 00 00 00       	mov    $0x4,%edi
    6dd7:	e8 fb d6 ff ff       	call   44d7 <jstring_temporary_memory_allocate_string>
    6ddc:	48 89 45 98          	mov    %rax,-0x68(%rbp)
    6de0:	48 8b 45 98          	mov    -0x68(%rbp),%rax
    6de4:	48 89 c2             	mov    %rax,%rdx
    6de7:	48 c1 ea 03          	shr    $0x3,%rdx
    6deb:	48 81 c2 00 80 ff 7f 	add    $0x7fff8000,%rdx
    6df2:	0f b6 12             	movzbl (%rdx),%edx
    6df5:	84 d2                	test   %dl,%dl
    6df7:	0f 95 c1             	setne  %cl
    6dfa:	48 89 c6             	mov    %rax,%rsi
    6dfd:	83 e6 07             	and    $0x7,%esi
    6e00:	40 38 d6             	cmp    %dl,%sil
    6e03:	0f 9d c2             	setge  %dl
    6e06:	21 ca                	and    %ecx,%edx
    6e08:	84 d2                	test   %dl,%dl
    6e0a:	74 08                	je     6e14 <jstring_create_integer+0xd3>
    6e0c:	48 89 c7             	mov    %rax,%rdi
    6e0f:	e8 9c d3 ff ff       	call   41b0 <__asan_report_store1@plt>
    6e14:	48 8b 45 98          	mov    -0x68(%rbp),%rax
    6e18:	c6 00 30             	movb   $0x30,(%rax)
    6e1b:	48 8b 45 98          	mov    -0x68(%rbp),%rax
    6e1f:	48 8d 48 01          	lea    0x1(%rax),%rcx
    6e23:	48 89 c8             	mov    %rcx,%rax
    6e26:	48 89 c2             	mov    %rax,%rdx
    6e29:	48 c1 ea 03          	shr    $0x3,%rdx
    6e2d:	48 81 c2 00 80 ff 7f 	add    $0x7fff8000,%rdx
    6e34:	0f b6 12             	movzbl (%rdx),%edx
    6e37:	84 d2                	test   %dl,%dl
    6e39:	40 0f 95 c6          	setne  %sil
    6e3d:	48 89 c7             	mov    %rax,%rdi
    6e40:	83 e7 07             	and    $0x7,%edi
    6e43:	40 38 d7             	cmp    %dl,%dil
    6e46:	0f 9d c2             	setge  %dl
    6e49:	21 f2                	and    %esi,%edx
    6e4b:	84 d2                	test   %dl,%dl
    6e4d:	74 08                	je     6e57 <jstring_create_integer+0x116>
    6e4f:	48 89 c7             	mov    %rax,%rdi
    6e52:	e8 59 d3 ff ff       	call   41b0 <__asan_report_store1@plt>
    6e57:	c6 01 00             	movb   $0x0,(%rcx)
    6e5a:	48 8b 45 98          	mov    -0x68(%rbp),%rax
    6e5e:	48 89 43 e8          	mov    %rax,-0x18(%rbx)
    6e62:	c7 43 e0 01 00 00 00 	movl   $0x1,-0x20(%rbx)
    6e69:	8b 43 e0             	mov    -0x20(%rbx),%eax
    6e6c:	83 c0 01             	add    $0x1,%eax
    6e6f:	01 c0                	add    %eax,%eax
    6e71:	89 43 e4             	mov    %eax,-0x1c(%rbx)
    6e74:	48 8b 15 c5 22 01 00 	mov    0x122c5(%rip),%rdx        # 19140 <jstring_log>
    6e7b:	48 8b 43 e8          	mov    -0x18(%rbx),%rax
    6e7f:	48 8d 0d 3a c9 00 00 	lea    0xc93a(%rip),%rcx        # 137c0 <_IO_stdin_used+0x7c0>
    6e86:	48 89 c6             	mov    %rax,%rsi
    6e89:	48 89 cf             	mov    %rcx,%rdi
    6e8c:	b8 00 00 00 00       	mov    $0x0,%eax
    6e91:	ff d2                	call   *%rdx
    6e93:	48 8b 43 e0          	mov    -0x20(%rbx),%rax
    6e97:	48 8b 53 e8          	mov    -0x18(%rbx),%rdx
    6e9b:	e9 29 06 00 00       	jmp    74c9 <jstring_create_integer+0x788>
    6ea0:	48 83 bd 68 ff ff ff 	cmpq   $0x0,-0x98(%rbp)
    6ea7:	00 
    6ea8:	0f 89 8d 02 00 00    	jns    713b <jstring_create_integer+0x3fa>
    6eae:	83 bd 64 ff ff ff 00 	cmpl   $0x0,-0x9c(%rbp)
    6eb5:	74 6e                	je     6f25 <jstring_create_integer+0x1e4>
    6eb7:	4c 8b 05 82 22 01 00 	mov    0x12282(%rip),%r8        # 19140 <jstring_log>
    6ebe:	48 8d 15 db c6 00 00 	lea    0xc6db(%rip),%rdx        # 135a0 <_IO_stdin_used+0x5a0>
    6ec5:	48 8d 35 54 c9 00 00 	lea    0xc954(%rip),%rsi        # 13820 <_IO_stdin_used+0x820>
    6ecc:	48 8d 05 4d c7 00 00 	lea    0xc74d(%rip),%rax        # 13620 <_IO_stdin_used+0x620>
    6ed3:	b9 4d 02 00 00       	mov    $0x24d,%ecx
    6ed8:	48 89 c7             	mov    %rax,%rdi
    6edb:	b8 00 00 00 00       	mov    $0x0,%eax
    6ee0:	41 ff d0             	call   *%r8
    6ee3:	b9 00 00 00 00       	mov    $0x0,%ecx
    6ee8:	48 89 c8             	mov    %rcx,%rax
    6eeb:	48 89 c2             	mov    %rax,%rdx
    6eee:	48 c1 ea 03          	shr    $0x3,%rdx
    6ef2:	48 81 c2 00 80 ff 7f 	add    $0x7fff8000,%rdx
    6ef9:	0f b6 12             	movzbl (%rdx),%edx
    6efc:	84 d2                	test   %dl,%dl
    6efe:	40 0f 95 c6          	setne  %sil
    6f02:	48 89 c7             	mov    %rax,%rdi
    6f05:	83 e7 07             	and    $0x7,%edi
    6f08:	40 38 d7             	cmp    %dl,%dil
    6f0b:	0f 9d c2             	setge  %dl
    6f0e:	21 f2                	and    %esi,%edx
    6f10:	84 d2                	test   %dl,%dl
    6f12:	74 08                	je     6f1c <jstring_create_integer+0x1db>
    6f14:	48 89 c7             	mov    %rax,%rdi
    6f17:	e8 74 d2 ff ff       	call   4190 <__asan_report_load1@plt>
    6f1c:	0f b6 01             	movzbl (%rcx),%eax
    6f1f:	88 85 7b ff ff ff    	mov    %al,-0x85(%rbp)
    6f25:	c7 85 64 ff ff ff 01 	movl   $0x1,-0x9c(%rbp)
    6f2c:	00 00 00 
    6f2f:	48 8b 85 68 ff ff ff 	mov    -0x98(%rbp),%rax
    6f36:	48 f7 d8             	neg    %rax
    6f39:	48 89 45 88          	mov    %rax,-0x78(%rbp)
    6f3d:	eb 30                	jmp    6f6f <jstring_create_integer+0x22e>
    6f3f:	48 8b 4d 88          	mov    -0x78(%rbp),%rcx
    6f43:	48 ba 67 66 66 66 66 	movabs $0x6666666666666667,%rdx
    6f4a:	66 66 66 
    6f4d:	48 89 c8             	mov    %rcx,%rax
    6f50:	48 f7 ea             	imul   %rdx
    6f53:	48 89 d0             	mov    %rdx,%rax
    6f56:	48 c1 f8 02          	sar    $0x2,%rax
    6f5a:	48 c1 f9 3f          	sar    $0x3f,%rcx
    6f5e:	48 89 ca             	mov    %rcx,%rdx
    6f61:	48 29 d0             	sub    %rdx,%rax
    6f64:	48 89 45 88          	mov    %rax,-0x78(%rbp)
    6f68:	83 85 64 ff ff ff 01 	addl   $0x1,-0x9c(%rbp)
    6f6f:	48 83 7d 88 00       	cmpq   $0x0,-0x78(%rbp)
    6f74:	75 c9                	jne    6f3f <jstring_create_integer+0x1fe>
    6f76:	8b 85 64 ff ff ff    	mov    -0x9c(%rbp),%eax
    6f7c:	83 c0 01             	add    $0x1,%eax
    6f7f:	01 c0                	add    %eax,%eax
    6f81:	89 c0                	mov    %eax,%eax
    6f83:	48 89 c7             	mov    %rax,%rdi
    6f86:	e8 4c d5 ff ff       	call   44d7 <jstring_temporary_memory_allocate_string>
    6f8b:	48 89 45 98          	mov    %rax,-0x68(%rbp)
    6f8f:	8b 85 64 ff ff ff    	mov    -0x9c(%rbp),%eax
    6f95:	83 e8 01             	sub    $0x1,%eax
    6f98:	89 85 7c ff ff ff    	mov    %eax,-0x84(%rbp)
    6f9e:	48 f7 9d 68 ff ff ff 	negq   -0x98(%rbp)
    6fa5:	e9 bc 00 00 00       	jmp    7066 <jstring_create_integer+0x325>
    6faa:	48 8b 8d 68 ff ff ff 	mov    -0x98(%rbp),%rcx
    6fb1:	48 ba 67 66 66 66 66 	movabs $0x6666666666666667,%rdx
    6fb8:	66 66 66 
    6fbb:	48 89 c8             	mov    %rcx,%rax
    6fbe:	48 f7 ea             	imul   %rdx
    6fc1:	48 c1 fa 02          	sar    $0x2,%rdx
    6fc5:	48 89 c8             	mov    %rcx,%rax
    6fc8:	48 c1 f8 3f          	sar    $0x3f,%rax
    6fcc:	48 29 c2             	sub    %rax,%rdx
    6fcf:	48 89 d0             	mov    %rdx,%rax
    6fd2:	48 c1 e0 02          	shl    $0x2,%rax
    6fd6:	48 01 d0             	add    %rdx,%rax
    6fd9:	48 01 c0             	add    %rax,%rax
    6fdc:	48 29 c1             	sub    %rax,%rcx
    6fdf:	48 89 ca             	mov    %rcx,%rdx
    6fe2:	89 d0                	mov    %edx,%eax
    6fe4:	8d 70 30             	lea    0x30(%rax),%esi
    6fe7:	8b 85 7c ff ff ff    	mov    -0x84(%rbp),%eax
    6fed:	48 63 d0             	movslq %eax,%rdx
    6ff0:	48 8b 45 98          	mov    -0x68(%rbp),%rax
    6ff4:	48 8d 0c 02          	lea    (%rdx,%rax,1),%rcx
    6ff8:	48 89 c8             	mov    %rcx,%rax
    6ffb:	48 89 c2             	mov    %rax,%rdx
    6ffe:	48 c1 ea 03          	shr    $0x3,%rdx
    7002:	48 81 c2 00 80 ff 7f 	add    $0x7fff8000,%rdx
    7009:	0f b6 12             	movzbl (%rdx),%edx
    700c:	84 d2                	test   %dl,%dl
    700e:	40 0f 95 c7          	setne  %dil
    7012:	49 89 c0             	mov    %rax,%r8
    7015:	41 83 e0 07          	and    $0x7,%r8d
    7019:	41 38 d0             	cmp    %dl,%r8b
    701c:	0f 9d c2             	setge  %dl
    701f:	21 fa                	and    %edi,%edx
    7021:	84 d2                	test   %dl,%dl
    7023:	74 08                	je     702d <jstring_create_integer+0x2ec>
    7025:	48 89 c7             	mov    %rax,%rdi
    7028:	e8 83 d1 ff ff       	call   41b0 <__asan_report_store1@plt>
    702d:	40 88 31             	mov    %sil,(%rcx)
    7030:	48 8b 8d 68 ff ff ff 	mov    -0x98(%rbp),%rcx
    7037:	48 ba 67 66 66 66 66 	movabs $0x6666666666666667,%rdx
    703e:	66 66 66 
    7041:	48 89 c8             	mov    %rcx,%rax
    7044:	48 f7 ea             	imul   %rdx
    7047:	48 89 d0             	mov    %rdx,%rax
    704a:	48 c1 f8 02          	sar    $0x2,%rax
    704e:	48 c1 f9 3f          	sar    $0x3f,%rcx
    7052:	48 89 ca             	mov    %rcx,%rdx
    7055:	48 29 d0             	sub    %rdx,%rax
    7058:	48 89 85 68 ff ff ff 	mov    %rax,-0x98(%rbp)
    705f:	83 ad 7c ff ff ff 01 	subl   $0x1,-0x84(%rbp)
    7066:	83 bd 7c ff ff ff 00 	cmpl   $0x0,-0x84(%rbp)
    706d:	0f 8f 37 ff ff ff    	jg     6faa <jstring_create_integer+0x269>
    7073:	48 8b 45 98          	mov    -0x68(%rbp),%rax
    7077:	48 89 c2             	mov    %rax,%rdx
    707a:	48 c1 ea 03          	shr    $0x3,%rdx
    707e:	48 81 c2 00 80 ff 7f 	add    $0x7fff8000,%rdx
    7085:	0f b6 12             	movzbl (%rdx),%edx
    7088:	84 d2                	test   %dl,%dl
    708a:	0f 95 c1             	setne  %cl
    708d:	48 89 c6             	mov    %rax,%rsi
    7090:	83 e6 07             	and    $0x7,%esi
    7093:	40 38 d6             	cmp    %dl,%sil
    7096:	0f 9d c2             	setge  %dl
    7099:	21 ca                	and    %ecx,%edx
    709b:	84 d2                	test   %dl,%dl
    709d:	74 08                	je     70a7 <jstring_create_integer+0x366>
    709f:	48 89 c7             	mov    %rax,%rdi
    70a2:	e8 09 d1 ff ff       	call   41b0 <__asan_report_store1@plt>
    70a7:	48 8b 45 98          	mov    -0x68(%rbp),%rax
    70ab:	c6 00 2d             	movb   $0x2d,(%rax)
    70ae:	8b 95 64 ff ff ff    	mov    -0x9c(%rbp),%edx
    70b4:	48 8b 45 98          	mov    -0x68(%rbp),%rax
    70b8:	48 8d 0c 02          	lea    (%rdx,%rax,1),%rcx
    70bc:	48 89 c8             	mov    %rcx,%rax
    70bf:	48 89 c2             	mov    %rax,%rdx
    70c2:	48 c1 ea 03          	shr    $0x3,%rdx
    70c6:	48 81 c2 00 80 ff 7f 	add    $0x7fff8000,%rdx
    70cd:	0f b6 12             	movzbl (%rdx),%edx
    70d0:	84 d2                	test   %dl,%dl
    70d2:	40 0f 95 c6          	setne  %sil
    70d6:	48 89 c7             	mov    %rax,%rdi
    70d9:	83 e7 07             	and    $0x7,%edi
    70dc:	40 38 d7             	cmp    %dl,%dil
    70df:	0f 9d c2             	setge  %dl
    70e2:	21 f2                	and    %esi,%edx
    70e4:	84 d2                	test   %dl,%dl
    70e6:	74 08                	je     70f0 <jstring_create_integer+0x3af>
    70e8:	48 89 c7             	mov    %rax,%rdi
    70eb:	e8 c0 d0 ff ff       	call   41b0 <__asan_report_store1@plt>
    70f0:	c6 01 00             	movb   $0x0,(%rcx)
    70f3:	48 8b 45 98          	mov    -0x68(%rbp),%rax
    70f7:	48 89 43 e8          	mov    %rax,-0x18(%rbx)
    70fb:	8b 85 64 ff ff ff    	mov    -0x9c(%rbp),%eax
    7101:	89 43 e0             	mov    %eax,-0x20(%rbx)
    7104:	8b 43 e0             	mov    -0x20(%rbx),%eax
    7107:	83 c0 01             	add    $0x1,%eax
    710a:	01 c0                	add    %eax,%eax
    710c:	89 43 e4             	mov    %eax,-0x1c(%rbx)
    710f:	48 8b 15 2a 20 01 00 	mov    0x1202a(%rip),%rdx        # 19140 <jstring_log>
    7116:	48 8b 43 e8          	mov    -0x18(%rbx),%rax
    711a:	48 8d 0d 9f c6 00 00 	lea    0xc69f(%rip),%rcx        # 137c0 <_IO_stdin_used+0x7c0>
    7121:	48 89 c6             	mov    %rax,%rsi
    7124:	48 89 cf             	mov    %rcx,%rdi
    7127:	b8 00 00 00 00       	mov    $0x0,%eax
    712c:	ff d2                	call   *%rdx
    712e:	48 8b 43 e0          	mov    -0x20(%rbx),%rax
    7132:	48 8b 53 e8          	mov    -0x18(%rbx),%rdx
    7136:	e9 8e 03 00 00       	jmp    74c9 <jstring_create_integer+0x788>
    713b:	83 bd 64 ff ff ff 00 	cmpl   $0x0,-0x9c(%rbp)
    7142:	0f 85 bb 01 00 00    	jne    7303 <jstring_create_integer+0x5c2>
    7148:	48 8b 85 68 ff ff ff 	mov    -0x98(%rbp),%rax
    714f:	48 89 45 90          	mov    %rax,-0x70(%rbp)
    7153:	eb 30                	jmp    7185 <jstring_create_integer+0x444>
    7155:	48 8b 4d 90          	mov    -0x70(%rbp),%rcx
    7159:	48 ba 67 66 66 66 66 	movabs $0x6666666666666667,%rdx
    7160:	66 66 66 
    7163:	48 89 c8             	mov    %rcx,%rax
    7166:	48 f7 ea             	imul   %rdx
    7169:	48 89 d0             	mov    %rdx,%rax
    716c:	48 c1 f8 02          	sar    $0x2,%rax
    7170:	48 c1 f9 3f          	sar    $0x3f,%rcx
    7174:	48 89 ca             	mov    %rcx,%rdx
    7177:	48 29 d0             	sub    %rdx,%rax
    717a:	48 89 45 90          	mov    %rax,-0x70(%rbp)
    717e:	83 85 64 ff ff ff 01 	addl   $0x1,-0x9c(%rbp)
    7185:	48 83 7d 90 00       	cmpq   $0x0,-0x70(%rbp)
    718a:	75 c9                	jne    7155 <jstring_create_integer+0x414>
    718c:	8b 85 64 ff ff ff    	mov    -0x9c(%rbp),%eax
    7192:	83 c0 01             	add    $0x1,%eax
    7195:	01 c0                	add    %eax,%eax
    7197:	89 c0                	mov    %eax,%eax
    7199:	48 89 c7             	mov    %rax,%rdi
    719c:	e8 36 d3 ff ff       	call   44d7 <jstring_temporary_memory_allocate_string>
    71a1:	48 89 45 98          	mov    %rax,-0x68(%rbp)
    71a5:	8b 85 64 ff ff ff    	mov    -0x9c(%rbp),%eax
    71ab:	83 e8 01             	sub    $0x1,%eax
    71ae:	89 45 80             	mov    %eax,-0x80(%rbp)
    71b1:	e9 b6 00 00 00       	jmp    726c <jstring_create_integer+0x52b>
    71b6:	48 8b 8d 68 ff ff ff 	mov    -0x98(%rbp),%rcx
    71bd:	48 ba 67 66 66 66 66 	movabs $0x6666666666666667,%rdx
    71c4:	66 66 66 
    71c7:	48 89 c8             	mov    %rcx,%rax
    71ca:	48 f7 ea             	imul   %rdx
    71cd:	48 c1 fa 02          	sar    $0x2,%rdx
    71d1:	48 89 c8             	mov    %rcx,%rax
    71d4:	48 c1 f8 3f          	sar    $0x3f,%rax
    71d8:	48 29 c2             	sub    %rax,%rdx
    71db:	48 89 d0             	mov    %rdx,%rax
    71de:	48 c1 e0 02          	shl    $0x2,%rax
    71e2:	48 01 d0             	add    %rdx,%rax
    71e5:	48 01 c0             	add    %rax,%rax
    71e8:	48 29 c1             	sub    %rax,%rcx
    71eb:	48 89 ca             	mov    %rcx,%rdx
    71ee:	89 d0                	mov    %edx,%eax
    71f0:	8d 70 30             	lea    0x30(%rax),%esi
    71f3:	8b 45 80             	mov    -0x80(%rbp),%eax
    71f6:	48 63 d0             	movslq %eax,%rdx
    71f9:	48 8b 45 98          	mov    -0x68(%rbp),%rax
    71fd:	48 8d 0c 02          	lea    (%rdx,%rax,1),%rcx
    7201:	48 89 c8             	mov    %rcx,%rax
    7204:	48 89 c2             	mov    %rax,%rdx
    7207:	48 c1 ea 03          	shr    $0x3,%rdx
    720b:	48 81 c2 00 80 ff 7f 	add    $0x7fff8000,%rdx
    7212:	0f b6 12             	movzbl (%rdx),%edx
    7215:	84 d2                	test   %dl,%dl
    7217:	40 0f 95 c7          	setne  %dil
    721b:	49 89 c0             	mov    %rax,%r8
    721e:	41 83 e0 07          	and    $0x7,%r8d
    7222:	41 38 d0             	cmp    %dl,%r8b
    7225:	0f 9d c2             	setge  %dl
    7228:	21 fa                	and    %edi,%edx
    722a:	84 d2                	test   %dl,%dl
    722c:	74 08                	je     7236 <jstring_create_integer+0x4f5>
    722e:	48 89 c7             	mov    %rax,%rdi
    7231:	e8 7a cf ff ff       	call   41b0 <__asan_report_store1@plt>
    7236:	40 88 31             	mov    %sil,(%rcx)
    7239:	48 8b 8d 68 ff ff ff 	mov    -0x98(%rbp),%rcx
    7240:	48 ba 67 66 66 66 66 	movabs $0x6666666666666667,%rdx
    7247:	66 66 66 
    724a:	48 89 c8             	mov    %rcx,%rax
    724d:	48 f7 ea             	imul   %rdx
    7250:	48 89 d0             	mov    %rdx,%rax
    7253:	48 c1 f8 02          	sar    $0x2,%rax
    7257:	48 c1 f9 3f          	sar    $0x3f,%rcx
    725b:	48 89 ca             	mov    %rcx,%rdx
    725e:	48 29 d0             	sub    %rdx,%rax
    7261:	48 89 85 68 ff ff ff 	mov    %rax,-0x98(%rbp)
    7268:	83 6d 80 01          	subl   $0x1,-0x80(%rbp)
    726c:	83 7d 80 00          	cmpl   $0x0,-0x80(%rbp)
    7270:	0f 89 40 ff ff ff    	jns    71b6 <jstring_create_integer+0x475>
    7276:	8b 95 64 ff ff ff    	mov    -0x9c(%rbp),%edx
    727c:	48 8b 45 98          	mov    -0x68(%rbp),%rax
    7280:	48 8d 0c 02          	lea    (%rdx,%rax,1),%rcx
    7284:	48 89 c8             	mov    %rcx,%rax
    7287:	48 89 c2             	mov    %rax,%rdx
    728a:	48 c1 ea 03          	shr    $0x3,%rdx
    728e:	48 81 c2 00 80 ff 7f 	add    $0x7fff8000,%rdx
    7295:	0f b6 12             	movzbl (%rdx),%edx
    7298:	84 d2                	test   %dl,%dl
    729a:	40 0f 95 c6          	setne  %sil
    729e:	48 89 c7             	mov    %rax,%rdi
    72a1:	83 e7 07             	and    $0x7,%edi
    72a4:	40 38 d7             	cmp    %dl,%dil
    72a7:	0f 9d c2             	setge  %dl
    72aa:	21 f2                	and    %esi,%edx
    72ac:	84 d2                	test   %dl,%dl
    72ae:	74 08                	je     72b8 <jstring_create_integer+0x577>
    72b0:	48 89 c7             	mov    %rax,%rdi
    72b3:	e8 f8 ce ff ff       	call   41b0 <__asan_report_store1@plt>
    72b8:	c6 01 00             	movb   $0x0,(%rcx)
    72bb:	48 8b 45 98          	mov    -0x68(%rbp),%rax
    72bf:	48 89 43 e8          	mov    %rax,-0x18(%rbx)
    72c3:	8b 85 64 ff ff ff    	mov    -0x9c(%rbp),%eax
    72c9:	89 43 e0             	mov    %eax,-0x20(%rbx)
    72cc:	8b 43 e0             	mov    -0x20(%rbx),%eax
    72cf:	83 c0 01             	add    $0x1,%eax
    72d2:	01 c0                	add    %eax,%eax
    72d4:	89 43 e4             	mov    %eax,-0x1c(%rbx)
    72d7:	48 8b 15 62 1e 01 00 	mov    0x11e62(%rip),%rdx        # 19140 <jstring_log>
    72de:	48 8b 43 e8          	mov    -0x18(%rbx),%rax
    72e2:	48 8d 0d d7 c4 00 00 	lea    0xc4d7(%rip),%rcx        # 137c0 <_IO_stdin_used+0x7c0>
    72e9:	48 89 c6             	mov    %rax,%rsi
    72ec:	48 89 cf             	mov    %rcx,%rdi
    72ef:	b8 00 00 00 00       	mov    $0x0,%eax
    72f4:	ff d2                	call   *%rdx
    72f6:	48 8b 43 e0          	mov    -0x20(%rbx),%rax
    72fa:	48 8b 53 e8          	mov    -0x18(%rbx),%rdx
    72fe:	e9 c6 01 00 00       	jmp    74c9 <jstring_create_integer+0x788>
    7303:	8b 85 64 ff ff ff    	mov    -0x9c(%rbp),%eax
    7309:	83 c0 01             	add    $0x1,%eax
    730c:	01 c0                	add    %eax,%eax
    730e:	89 c0                	mov    %eax,%eax
    7310:	48 89 c7             	mov    %rax,%rdi
    7313:	e8 bf d1 ff ff       	call   44d7 <jstring_temporary_memory_allocate_string>
    7318:	48 89 45 98          	mov    %rax,-0x68(%rbp)
    731c:	8b 85 64 ff ff ff    	mov    -0x9c(%rbp),%eax
    7322:	83 e8 01             	sub    $0x1,%eax
    7325:	89 45 84             	mov    %eax,-0x7c(%rbp)
    7328:	e9 0a 01 00 00       	jmp    7437 <jstring_create_integer+0x6f6>
    732d:	48 83 bd 68 ff ff ff 	cmpq   $0x0,-0x98(%rbp)
    7334:	00 
    7335:	75 4a                	jne    7381 <jstring_create_integer+0x640>
    7337:	8b 45 84             	mov    -0x7c(%rbp),%eax
    733a:	48 63 d0             	movslq %eax,%rdx
    733d:	48 8b 45 98          	mov    -0x68(%rbp),%rax
    7341:	48 8d 0c 02          	lea    (%rdx,%rax,1),%rcx
    7345:	48 89 c8             	mov    %rcx,%rax
    7348:	48 89 c2             	mov    %rax,%rdx
    734b:	48 c1 ea 03          	shr    $0x3,%rdx
    734f:	48 81 c2 00 80 ff 7f 	add    $0x7fff8000,%rdx
    7356:	0f b6 12             	movzbl (%rdx),%edx
    7359:	84 d2                	test   %dl,%dl
    735b:	40 0f 95 c6          	setne  %sil
    735f:	48 89 c7             	mov    %rax,%rdi
    7362:	83 e7 07             	and    $0x7,%edi
    7365:	40 38 d7             	cmp    %dl,%dil
    7368:	0f 9d c2             	setge  %dl
    736b:	21 f2                	and    %esi,%edx
    736d:	84 d2                	test   %dl,%dl
    736f:	74 08                	je     7379 <jstring_create_integer+0x638>
    7371:	48 89 c7             	mov    %rax,%rdi
    7374:	e8 37 ce ff ff       	call   41b0 <__asan_report_store1@plt>
    7379:	c6 01 30             	movb   $0x30,(%rcx)
    737c:	e9 b2 00 00 00       	jmp    7433 <jstring_create_integer+0x6f2>
    7381:	48 8b 8d 68 ff ff ff 	mov    -0x98(%rbp),%rcx
    7388:	48 ba 67 66 66 66 66 	movabs $0x6666666666666667,%rdx
    738f:	66 66 66 
    7392:	48 89 c8             	mov    %rcx,%rax
    7395:	48 f7 ea             	imul   %rdx
    7398:	48 c1 fa 02          	sar    $0x2,%rdx
    739c:	48 89 c8             	mov    %rcx,%rax
    739f:	48 c1 f8 3f          	sar    $0x3f,%rax
    73a3:	48 29 c2             	sub    %rax,%rdx
    73a6:	48 89 d0             	mov    %rdx,%rax
    73a9:	48 c1 e0 02          	shl    $0x2,%rax
    73ad:	48 01 d0             	add    %rdx,%rax
    73b0:	48 01 c0             	add    %rax,%rax
    73b3:	48 29 c1             	sub    %rax,%rcx
    73b6:	48 89 ca             	mov    %rcx,%rdx
    73b9:	89 d0                	mov    %edx,%eax
    73bb:	8d 70 30             	lea    0x30(%rax),%esi
    73be:	8b 45 84             	mov    -0x7c(%rbp),%eax
    73c1:	48 63 d0             	movslq %eax,%rdx
    73c4:	48 8b 45 98          	mov    -0x68(%rbp),%rax
    73c8:	48 8d 0c 02          	lea    (%rdx,%rax,1),%rcx
    73cc:	48 89 c8             	mov    %rcx,%rax
    73cf:	48 89 c2             	mov    %rax,%rdx
    73d2:	48 c1 ea 03          	shr    $0x3,%rdx
    73d6:	48 81 c2 00 80 ff 7f 	add    $0x7fff8000,%rdx
    73dd:	0f b6 12             	movzbl (%rdx),%edx
    73e0:	84 d2                	test   %dl,%dl
    73e2:	40 0f 95 c7          	setne  %dil
    73e6:	49 89 c0             	mov    %rax,%r8
    73e9:	41 83 e0 07          	and    $0x7,%r8d
    73ed:	41 38 d0             	cmp    %dl,%r8b
    73f0:	0f 9d c2             	setge  %dl
    73f3:	21 fa                	and    %edi,%edx
    73f5:	84 d2                	test   %dl,%dl
    73f7:	74 08                	je     7401 <jstring_create_integer+0x6c0>
    73f9:	48 89 c7             	mov    %rax,%rdi
    73fc:	e8 af cd ff ff       	call   41b0 <__asan_report_store1@plt>
    7401:	40 88 31             	mov    %sil,(%rcx)
    7404:	48 8b 8d 68 ff ff ff 	mov    -0x98(%rbp),%rcx
    740b:	48 ba 67 66 66 66 66 	movabs $0x6666666666666667,%rdx
    7412:	66 66 66 
    7415:	48 89 c8             	mov    %rcx,%rax
    7418:	48 f7 ea             	imul   %rdx
    741b:	48 89 d0             	mov    %rdx,%rax
    741e:	48 c1 f8 02          	sar    $0x2,%rax
    7422:	48 c1 f9 3f          	sar    $0x3f,%rcx
    7426:	48 89 ca             	mov    %rcx,%rdx
    7429:	48 29 d0             	sub    %rdx,%rax
    742c:	48 89 85 68 ff ff ff 	mov    %rax,-0x98(%rbp)
    7433:	83 6d 84 01          	subl   $0x1,-0x7c(%rbp)
    7437:	83 7d 84 00          	cmpl   $0x0,-0x7c(%rbp)
    743b:	0f 89 ec fe ff ff    	jns    732d <jstring_create_integer+0x5ec>
    7441:	8b 95 64 ff ff ff    	mov    -0x9c(%rbp),%edx
    7447:	48 8b 45 98          	mov    -0x68(%rbp),%rax
    744b:	48 8d 0c 02          	lea    (%rdx,%rax,1),%rcx
    744f:	48 89 c8             	mov    %rcx,%rax
    7452:	48 89 c2             	mov    %rax,%rdx
    7455:	48 c1 ea 03          	shr    $0x3,%rdx
    7459:	48 81 c2 00 80 ff 7f 	add    $0x7fff8000,%rdx
    7460:	0f b6 12             	movzbl (%rdx),%edx
    7463:	84 d2                	test   %dl,%dl
    7465:	40 0f 95 c6          	setne  %sil
    7469:	48 89 c7             	mov    %rax,%rdi
    746c:	83 e7 07             	and    $0x7,%edi
    746f:	40 38 d7             	cmp    %dl,%dil
    7472:	0f 9d c2             	setge  %dl
    7475:	21 f2                	and    %esi,%edx
    7477:	84 d2                	test   %dl,%dl
    7479:	74 08                	je     7483 <jstring_create_integer+0x742>
    747b:	48 89 c7             	mov    %rax,%rdi
    747e:	e8 2d cd ff ff       	call   41b0 <__asan_report_store1@plt>
    7483:	c6 01 00             	movb   $0x0,(%rcx)
    7486:	48 8b 45 98          	mov    -0x68(%rbp),%rax
    748a:	48 89 43 e8          	mov    %rax,-0x18(%rbx)
    748e:	8b 85 64 ff ff ff    	mov    -0x9c(%rbp),%eax
    7494:	89 43 e0             	mov    %eax,-0x20(%rbx)
    7497:	8b 43 e0             	mov    -0x20(%rbx),%eax
    749a:	83 c0 01             	add    $0x1,%eax
    749d:	01 c0                	add    %eax,%eax
    749f:	89 43 e4             	mov    %eax,-0x1c(%rbx)
    74a2:	48 8b 15 97 1c 01 00 	mov    0x11c97(%rip),%rdx        # 19140 <jstring_log>
    74a9:	48 8b 43 e8          	mov    -0x18(%rbx),%rax
    74ad:	48 8d 0d 0c c3 00 00 	lea    0xc30c(%rip),%rcx        # 137c0 <_IO_stdin_used+0x7c0>
    74b4:	48 89 c6             	mov    %rax,%rsi
    74b7:	48 89 cf             	mov    %rcx,%rdi
    74ba:	b8 00 00 00 00       	mov    $0x0,%eax
    74bf:	ff d2                	call   *%rdx
    74c1:	48 8b 43 e0          	mov    -0x20(%rbx),%rax
    74c5:	48 8b 53 e8          	mov    -0x18(%rbx),%rdx
    74c9:	4d 39 e6             	cmp    %r12,%r14
    74cc:	74 23                	je     74f1 <jstring_create_integer+0x7b0>
    74ce:	49 c7 04 24 0e 36 e0 	movq   $0x45e0360e,(%r12)
    74d5:	45 
    74d6:	48 bb f5 f5 f5 f5 f5 	movabs $0xf5f5f5f5f5f5f5f5,%rbx
    74dd:	f5 f5 f5 
    74e0:	49 89 9d 00 80 ff 7f 	mov    %rbx,0x7fff8000(%r13)
    74e7:	49 8b 4c 24 38       	mov    0x38(%r12),%rcx
    74ec:	c6 01 00             	movb   $0x0,(%rcx)
    74ef:	eb 0b                	jmp    74fc <jstring_create_integer+0x7bb>
    74f1:	49 c7 85 00 80 ff 7f 	movq   $0x0,0x7fff8000(%r13)
    74f8:	00 00 00 00 
    74fc:	48 83 ec 80          	sub    $0xffffffffffffff80,%rsp
    7500:	5b                   	pop    %rbx
    7501:	41 5c                	pop    %r12
    7503:	41 5d                	pop    %r13
    7505:	41 5e                	pop    %r14
    7507:	5d                   	pop    %rbp
    7508:	c3                   	ret

0000000000007509 <jstring_create_double>:
    7509:	55                   	push   %rbp
    750a:	48 89 e5             	mov    %rsp,%rbp
    750d:	41 56                	push   %r14
    750f:	41 55                	push   %r13
    7511:	41 54                	push   %r12
    7513:	53                   	push   %rbx
    7514:	48 81 ec c0 00 00 00 	sub    $0xc0,%rsp
    751b:	f2 0f 11 85 28 ff ff 	movsd  %xmm0,-0xd8(%rbp)
    7522:	ff 
    7523:	89 bd 24 ff ff ff    	mov    %edi,-0xdc(%rbp)
    7529:	4c 8d a5 60 ff ff ff 	lea    -0xa0(%rbp),%r12
    7530:	4d 89 e6             	mov    %r12,%r14
    7533:	83 3d 26 3d 01 00 00 	cmpl   $0x0,0x13d26(%rip)        # 1b260 <__asan_option_detect_stack_use_after_return@@Base>
    753a:	74 12                	je     754e <jstring_create_double+0x45>
    753c:	bf 60 00 00 00       	mov    $0x60,%edi
    7541:	e8 9a cb ff ff       	call   40e0 <__asan_stack_malloc_1@plt>
    7546:	48 85 c0             	test   %rax,%rax
    7549:	74 03                	je     754e <jstring_create_double+0x45>
    754b:	49 89 c4             	mov    %rax,%r12
    754e:	49 8d 84 24 80 00 00 	lea    0x80(%r12),%rax
    7555:	00 
    7556:	48 89 c3             	mov    %rax,%rbx
    7559:	49 c7 04 24 b3 8a b5 	movq   $0x41b58ab3,(%r12)
    7560:	41 
    7561:	48 8d 05 38 c3 00 00 	lea    0xc338(%rip),%rax        # 138a0 <_IO_stdin_used+0x8a0>
    7568:	49 89 44 24 08       	mov    %rax,0x8(%r12)
    756d:	48 8d 05 95 ff ff ff 	lea    -0x6b(%rip),%rax        # 7509 <jstring_create_double>
    7574:	49 89 44 24 10       	mov    %rax,0x10(%r12)
    7579:	4d 89 e5             	mov    %r12,%r13
    757c:	49 c1 ed 03          	shr    $0x3,%r13
    7580:	41 c7 85 00 80 ff 7f 	movl   $0xf1f1f1f1,0x7fff8000(%r13)
    7587:	f1 f1 f1 f1 
    758b:	41 c7 85 04 80 ff 7f 	movl   $0xf2f20000,0x7fff8004(%r13)
    7592:	00 00 f2 f2 
    7596:	41 c7 85 08 80 ff 7f 	movl   $0xf3f30000,0x7fff8008(%r13)
    759d:	00 00 f3 f3 
    75a1:	64 48 8b 04 25 28 00 	mov    %fs:0x28,%rax
    75a8:	00 00 
    75aa:	48 89 45 d8          	mov    %rax,-0x28(%rbp)
    75ae:	31 c0                	xor    %eax,%eax
    75b0:	f2 0f 10 85 28 ff ff 	movsd  -0xd8(%rbp),%xmm0
    75b7:	ff 
    75b8:	f2 48 0f 2c c0       	cvttsd2si %xmm0,%rax
    75bd:	48 89 85 50 ff ff ff 	mov    %rax,-0xb0(%rbp)
    75c4:	66 0f ef c9          	pxor   %xmm1,%xmm1
    75c8:	f2 48 0f 2a 8d 50 ff 	cvtsi2sdq -0xb0(%rbp),%xmm1
    75cf:	ff ff 
    75d1:	f2 0f 10 85 28 ff ff 	movsd  -0xd8(%rbp),%xmm0
    75d8:	ff 
    75d9:	f2 0f 5c c1          	subsd  %xmm1,%xmm0
    75dd:	f2 0f 11 85 48 ff ff 	movsd  %xmm0,-0xb8(%rbp)
    75e4:	ff 
    75e5:	66 0f ef c0          	pxor   %xmm0,%xmm0
    75e9:	66 0f 2f 85 48 ff ff 	comisd -0xb8(%rbp),%xmm0
    75f0:	ff 
    75f1:	76 1c                	jbe    760f <jstring_create_double+0x106>
    75f3:	f2 0f 10 85 48 ff ff 	movsd  -0xb8(%rbp),%xmm0
    75fa:	ff 
    75fb:	f3 0f 7e 0d 7d f0 00 	movq   0xf07d(%rip),%xmm1        # 16680 <__func__.0+0x420>
    7602:	00 
    7603:	66 0f 57 c1          	xorpd  %xmm1,%xmm0
    7607:	f2 0f 11 85 48 ff ff 	movsd  %xmm0,-0xb8(%rbp)
    760e:	ff 
    760f:	48 8d 43 a0          	lea    -0x60(%rbx),%rax
    7613:	48 89 c2             	mov    %rax,%rdx
    7616:	48 c1 ea 03          	shr    $0x3,%rdx
    761a:	48 81 c2 00 80 ff 7f 	add    $0x7fff8000,%rdx
    7621:	0f b7 12             	movzwl (%rdx),%edx
    7624:	66 85 d2             	test   %dx,%dx
    7627:	74 08                	je     7631 <jstring_create_double+0x128>
    7629:	48 89 c7             	mov    %rax,%rdi
    762c:	e8 9f ca ff ff       	call   40d0 <__asan_report_store16@plt>
    7631:	48 8b 85 50 ff ff ff 	mov    -0xb0(%rbp),%rax
    7638:	be 00 00 00 00       	mov    $0x0,%esi
    763d:	48 89 c7             	mov    %rax,%rdi
    7640:	e8 fc f6 ff ff       	call   6d41 <jstring_create_integer>
    7645:	48 89 43 a0          	mov    %rax,-0x60(%rbx)
    7649:	48 89 53 a8          	mov    %rdx,-0x58(%rbx)
    764d:	83 bd 24 ff ff ff 00 	cmpl   $0x0,-0xdc(%rbp)
    7654:	74 53                	je     76a9 <jstring_create_double+0x1a0>
    7656:	48 8d 15 a3 c2 00 00 	lea    0xc2a3(%rip),%rdx        # 13900 <_IO_stdin_used+0x900>
    765d:	48 8d 43 a0          	lea    -0x60(%rbx),%rax
    7661:	48 89 d6             	mov    %rdx,%rsi
    7664:	48 89 c7             	mov    %rax,%rdi
    7667:	e8 d4 ec ff ff       	call   6340 <jstring_concatenate_raw>
    766c:	c7 85 40 ff ff ff 00 	movl   $0x0,-0xc0(%rbp)
    7673:	00 00 00 
    7676:	eb 23                	jmp    769b <jstring_create_double+0x192>
    7678:	f2 0f 10 8d 48 ff ff 	movsd  -0xb8(%rbp),%xmm1
    767f:	ff 
    7680:	f2 0f 10 05 08 f0 00 	movsd  0xf008(%rip),%xmm0        # 16690 <__func__.0+0x430>
    7687:	00 
    7688:	f2 0f 59 c1          	mulsd  %xmm1,%xmm0
    768c:	f2 0f 11 85 48 ff ff 	movsd  %xmm0,-0xb8(%rbp)
    7693:	ff 
    7694:	83 85 40 ff ff ff 01 	addl   $0x1,-0xc0(%rbp)
    769b:	8b 85 40 ff ff ff    	mov    -0xc0(%rbp),%eax
    76a1:	3b 85 24 ff ff ff    	cmp    -0xdc(%rbp),%eax
    76a7:	72 cf                	jb     7678 <jstring_create_double+0x16f>
    76a9:	f2 0f 10 85 48 ff ff 	movsd  -0xb8(%rbp),%xmm0
    76b0:	ff 
    76b1:	66 0f 2f 05 df ef 00 	comisd 0xefdf(%rip),%xmm0        # 16698 <__func__.0+0x438>
    76b8:	00 
    76b9:	73 16                	jae    76d1 <jstring_create_double+0x1c8>
    76bb:	f2 0f 10 85 48 ff ff 	movsd  -0xb8(%rbp),%xmm0
    76c2:	ff 
    76c3:	f2 48 0f 2c c0       	cvttsd2si %xmm0,%rax
    76c8:	48 89 85 58 ff ff ff 	mov    %rax,-0xa8(%rbp)
    76cf:	eb 31                	jmp    7702 <jstring_create_double+0x1f9>
    76d1:	f2 0f 10 85 48 ff ff 	movsd  -0xb8(%rbp),%xmm0
    76d8:	ff 
    76d9:	f2 0f 10 0d b7 ef 00 	movsd  0xefb7(%rip),%xmm1        # 16698 <__func__.0+0x438>
    76e0:	00 
    76e1:	f2 0f 5c c1          	subsd  %xmm1,%xmm0
    76e5:	f2 48 0f 2c c0       	cvttsd2si %xmm0,%rax
    76ea:	48 89 85 58 ff ff ff 	mov    %rax,-0xa8(%rbp)
    76f1:	48 b8 00 00 00 00 00 	movabs $0x8000000000000000,%rax
    76f8:	00 00 80 
    76fb:	48 31 85 58 ff ff ff 	xor    %rax,-0xa8(%rbp)
    7702:	48 8b 85 58 ff ff ff 	mov    -0xa8(%rbp),%rax
    7709:	48 89 85 58 ff ff ff 	mov    %rax,-0xa8(%rbp)
    7710:	f2 0f 10 85 48 ff ff 	movsd  -0xb8(%rbp),%xmm0
    7717:	ff 
    7718:	f2 48 0f 2c c0       	cvttsd2si %xmm0,%rax
    771d:	8b 95 24 ff ff ff    	mov    -0xdc(%rbp),%edx
    7723:	89 d6                	mov    %edx,%esi
    7725:	48 89 c7             	mov    %rax,%rdi
    7728:	e8 14 f6 ff ff       	call   6d41 <jstring_create_integer>
    772d:	48 89 43 c0          	mov    %rax,-0x40(%rbx)
    7731:	48 89 53 c8          	mov    %rdx,-0x38(%rbx)
    7735:	8b 43 c0             	mov    -0x40(%rbx),%eax
    7738:	89 85 44 ff ff ff    	mov    %eax,-0xbc(%rbp)
    773e:	eb 1d                	jmp    775d <jstring_create_double+0x254>
    7740:	48 8d 15 f9 c1 00 00 	lea    0xc1f9(%rip),%rdx        # 13940 <_IO_stdin_used+0x940>
    7747:	48 8d 43 a0          	lea    -0x60(%rbx),%rax
    774b:	48 89 d6             	mov    %rdx,%rsi
    774e:	48 89 c7             	mov    %rax,%rdi
    7751:	e8 ea eb ff ff       	call   6340 <jstring_concatenate_raw>
    7756:	83 85 44 ff ff ff 01 	addl   $0x1,-0xbc(%rbp)
    775d:	8b 85 44 ff ff ff    	mov    -0xbc(%rbp),%eax
    7763:	3b 85 24 ff ff ff    	cmp    -0xdc(%rbp),%eax
    7769:	72 d5                	jb     7740 <jstring_create_double+0x237>
    776b:	48 8b 4b c0          	mov    -0x40(%rbx),%rcx
    776f:	48 8b 53 c8          	mov    -0x38(%rbx),%rdx
    7773:	48 8d 43 a0          	lea    -0x60(%rbx),%rax
    7777:	48 89 ce             	mov    %rcx,%rsi
    777a:	48 89 c7             	mov    %rax,%rdi
    777d:	e8 26 e3 ff ff       	call   5aa8 <jstring_concatenate_jstring>
    7782:	85 c0                	test   %eax,%eax
    7784:	0f 85 9a 00 00 00    	jne    7824 <jstring_create_double+0x31b>
    778a:	4c 8b 05 af 19 01 00 	mov    0x119af(%rip),%r8        # 19140 <jstring_log>
    7791:	48 8d 15 08 be 00 00 	lea    0xbe08(%rip),%rdx        # 135a0 <_IO_stdin_used+0x5a0>
    7798:	48 8d 35 81 bf 00 00 	lea    0xbf81(%rip),%rsi        # 13720 <_IO_stdin_used+0x720>
    779f:	48 8d 05 7a be 00 00 	lea    0xbe7a(%rip),%rax        # 13620 <_IO_stdin_used+0x620>
    77a6:	b9 c4 02 00 00       	mov    $0x2c4,%ecx
    77ab:	48 89 c7             	mov    %rax,%rdi
    77ae:	b8 00 00 00 00       	mov    $0x0,%eax
    77b3:	41 ff d0             	call   *%r8
    77b6:	b9 00 00 00 00       	mov    $0x0,%ecx
    77bb:	48 89 c8             	mov    %rcx,%rax
    77be:	48 89 c2             	mov    %rax,%rdx
    77c1:	48 c1 ea 03          	shr    $0x3,%rdx
    77c5:	48 81 c2 00 80 ff 7f 	add    $0x7fff8000,%rdx
    77cc:	0f b6 12             	movzbl (%rdx),%edx
    77cf:	84 d2                	test   %dl,%dl
    77d1:	40 0f 95 c6          	setne  %sil
    77d5:	48 89 c7             	mov    %rax,%rdi
    77d8:	83 e7 07             	and    $0x7,%edi
    77db:	40 38 d7             	cmp    %dl,%dil
    77de:	0f 9d c2             	setge  %dl
    77e1:	21 f2                	and    %esi,%edx
    77e3:	84 d2                	test   %dl,%dl
    77e5:	74 08                	je     77ef <jstring_create_double+0x2e6>
    77e7:	48 89 c7             	mov    %rax,%rdi
    77ea:	e8 a1 c9 ff ff       	call   4190 <__asan_report_load1@plt>
    77ef:	0f b6 01             	movzbl (%rcx),%eax
    77f2:	88 85 3f ff ff ff    	mov    %al,-0xc1(%rbp)
    77f8:	48 8d 43 a0          	lea    -0x60(%rbx),%rax
    77fc:	48 89 c2             	mov    %rax,%rdx
    77ff:	48 c1 ea 03          	shr    $0x3,%rdx
    7803:	48 81 c2 00 80 ff 7f 	add    $0x7fff8000,%rdx
    780a:	0f b7 12             	movzwl (%rdx),%edx
    780d:	66 85 d2             	test   %dx,%dx
    7810:	74 08                	je     781a <jstring_create_double+0x311>
    7812:	48 89 c7             	mov    %rax,%rdi
    7815:	e8 86 c9 ff ff       	call   41a0 <__asan_report_load16@plt>
    781a:	48 8b 43 a0          	mov    -0x60(%rbx),%rax
    781e:	48 8b 53 a8          	mov    -0x58(%rbx),%rdx
    7822:	eb 2a                	jmp    784e <jstring_create_double+0x345>
    7824:	48 8d 43 a0          	lea    -0x60(%rbx),%rax
    7828:	48 89 c2             	mov    %rax,%rdx
    782b:	48 c1 ea 03          	shr    $0x3,%rdx
    782f:	48 81 c2 00 80 ff 7f 	add    $0x7fff8000,%rdx
    7836:	0f b7 12             	movzwl (%rdx),%edx
    7839:	66 85 d2             	test   %dx,%dx
    783c:	74 08                	je     7846 <jstring_create_double+0x33d>
    783e:	48 89 c7             	mov    %rax,%rdi
    7841:	e8 5a c9 ff ff       	call   41a0 <__asan_report_load16@plt>
    7846:	48 8b 43 a0          	mov    -0x60(%rbx),%rax
    784a:	48 8b 53 a8          	mov    -0x58(%rbx),%rdx
    784e:	4d 39 e6             	cmp    %r12,%r14
    7851:	74 2e                	je     7881 <jstring_create_double+0x378>
    7853:	49 c7 04 24 0e 36 e0 	movq   $0x45e0360e,(%r12)
    785a:	45 
    785b:	48 b9 f5 f5 f5 f5 f5 	movabs $0xf5f5f5f5f5f5f5f5,%rcx
    7862:	f5 f5 f5 
    7865:	49 89 8d 00 80 ff 7f 	mov    %rcx,0x7fff8000(%r13)
    786c:	41 c7 85 08 80 ff 7f 	movl   $0xf5f5f5f5,0x7fff8008(%r13)
    7873:	f5 f5 f5 f5 
    7877:	49 8b 4c 24 78       	mov    0x78(%r12),%rcx
    787c:	c6 01 00             	movb   $0x0,(%rcx)
    787f:	eb 16                	jmp    7897 <jstring_create_double+0x38e>
    7881:	49 c7 85 00 80 ff 7f 	movq   $0x0,0x7fff8000(%r13)
    7888:	00 00 00 00 
    788c:	41 c7 85 08 80 ff 7f 	movl   $0x0,0x7fff8008(%r13)
    7893:	00 00 00 00 
    7897:	48 8b 4d d8          	mov    -0x28(%rbp),%rcx
    789b:	64 48 2b 0c 25 28 00 	sub    %fs:0x28,%rcx
    78a2:	00 00 
    78a4:	74 05                	je     78ab <jstring_create_double+0x3a2>
    78a6:	e8 b5 c8 ff ff       	call   4160 <__stack_chk_fail@plt>
    78ab:	48 81 c4 c0 00 00 00 	add    $0xc0,%rsp
    78b2:	5b                   	pop    %rbx
    78b3:	41 5c                	pop    %r12
    78b5:	41 5d                	pop    %r13
    78b7:	41 5e                	pop    %r14
    78b9:	5d                   	pop    %rbp
    78ba:	c3                   	ret

00000000000078bb <jstring_chars_to_int>:
    78bb:	55                   	push   %rbp
    78bc:	48 89 e5             	mov    %rsp,%rbp
    78bf:	48 83 ec 30          	sub    $0x30,%rsp
    78c3:	48 89 7d d8          	mov    %rdi,-0x28(%rbp)
    78c7:	89 75 d4             	mov    %esi,-0x2c(%rbp)
    78ca:	89 55 d0             	mov    %edx,-0x30(%rbp)
    78cd:	48 c7 45 f8 00 00 00 	movq   $0x0,-0x8(%rbp)
    78d4:	00 
    78d5:	c7 45 f0 00 00 00 00 	movl   $0x0,-0x10(%rbp)
    78dc:	c7 45 f4 00 00 00 00 	movl   $0x0,-0xc(%rbp)
    78e3:	48 8b 45 d8          	mov    -0x28(%rbp),%rax
    78e7:	48 89 c2             	mov    %rax,%rdx
    78ea:	48 c1 ea 03          	shr    $0x3,%rdx
    78ee:	48 81 c2 00 80 ff 7f 	add    $0x7fff8000,%rdx
    78f5:	0f b6 12             	movzbl (%rdx),%edx
    78f8:	84 d2                	test   %dl,%dl
    78fa:	0f 95 c1             	setne  %cl
    78fd:	48 89 c6             	mov    %rax,%rsi
    7900:	83 e6 07             	and    $0x7,%esi
    7903:	40 38 d6             	cmp    %dl,%sil
    7906:	0f 9d c2             	setge  %dl
    7909:	21 ca                	and    %ecx,%edx
    790b:	84 d2                	test   %dl,%dl
    790d:	74 08                	je     7917 <jstring_chars_to_int+0x5c>
    790f:	48 89 c7             	mov    %rax,%rdi
    7912:	e8 79 c8 ff ff       	call   4190 <__asan_report_load1@plt>
    7917:	48 8b 45 d8          	mov    -0x28(%rbp),%rax
    791b:	0f b6 00             	movzbl (%rax),%eax
    791e:	3c 30                	cmp    $0x30,%al
    7920:	0f 85 c8 00 00 00    	jne    79ee <jstring_chars_to_int+0x133>
    7926:	48 8b 45 d8          	mov    -0x28(%rbp),%rax
    792a:	48 8d 48 01          	lea    0x1(%rax),%rcx
    792e:	48 89 c8             	mov    %rcx,%rax
    7931:	48 89 c2             	mov    %rax,%rdx
    7934:	48 c1 ea 03          	shr    $0x3,%rdx
    7938:	48 81 c2 00 80 ff 7f 	add    $0x7fff8000,%rdx
    793f:	0f b6 12             	movzbl (%rdx),%edx
    7942:	84 d2                	test   %dl,%dl
    7944:	40 0f 95 c6          	setne  %sil
    7948:	48 89 c7             	mov    %rax,%rdi
    794b:	83 e7 07             	and    $0x7,%edi
    794e:	40 38 d7             	cmp    %dl,%dil
    7951:	0f 9d c2             	setge  %dl
    7954:	21 f2                	and    %esi,%edx
    7956:	84 d2                	test   %dl,%dl
    7958:	74 08                	je     7962 <jstring_chars_to_int+0xa7>
    795a:	48 89 c7             	mov    %rax,%rdi
    795d:	e8 2e c8 ff ff       	call   4190 <__asan_report_load1@plt>
    7962:	0f b6 01             	movzbl (%rcx),%eax
    7965:	84 c0                	test   %al,%al
    7967:	0f 85 81 00 00 00    	jne    79ee <jstring_chars_to_int+0x133>
    796d:	83 7d d4 01          	cmpl   $0x1,-0x2c(%rbp)
    7971:	74 71                	je     79e4 <jstring_chars_to_int+0x129>
    7973:	83 7d d4 ff          	cmpl   $0xffffffff,-0x2c(%rbp)
    7977:	74 6b                	je     79e4 <jstring_chars_to_int+0x129>
    7979:	4c 8b 05 c0 17 01 00 	mov    0x117c0(%rip),%r8        # 19140 <jstring_log>
    7980:	48 8d 15 19 bc 00 00 	lea    0xbc19(%rip),%rdx        # 135a0 <_IO_stdin_used+0x5a0>
    7987:	48 8d 35 f2 bf 00 00 	lea    0xbff2(%rip),%rsi        # 13980 <_IO_stdin_used+0x980>
    798e:	48 8d 05 8b bc 00 00 	lea    0xbc8b(%rip),%rax        # 13620 <_IO_stdin_used+0x620>
    7995:	b9 d7 02 00 00       	mov    $0x2d7,%ecx
    799a:	48 89 c7             	mov    %rax,%rdi
    799d:	b8 00 00 00 00       	mov    $0x0,%eax
    79a2:	41 ff d0             	call   *%r8
    79a5:	b9 00 00 00 00       	mov    $0x0,%ecx
    79aa:	48 89 c8             	mov    %rcx,%rax
    79ad:	48 89 c2             	mov    %rax,%rdx
    79b0:	48 c1 ea 03          	shr    $0x3,%rdx
    79b4:	48 81 c2 00 80 ff 7f 	add    $0x7fff8000,%rdx
    79bb:	0f b6 12             	movzbl (%rdx),%edx
    79be:	84 d2                	test   %dl,%dl
    79c0:	40 0f 95 c6          	setne  %sil
    79c4:	48 89 c7             	mov    %rax,%rdi
    79c7:	83 e7 07             	and    $0x7,%edi
    79ca:	40 38 d7             	cmp    %dl,%dil
    79cd:	0f 9d c2             	setge  %dl
    79d0:	21 f2                	and    %esi,%edx
    79d2:	84 d2                	test   %dl,%dl
    79d4:	74 08                	je     79de <jstring_chars_to_int+0x123>
    79d6:	48 89 c7             	mov    %rax,%rdi
    79d9:	e8 b2 c7 ff ff       	call   4190 <__asan_report_load1@plt>
    79de:	0f b6 01             	movzbl (%rcx),%eax
    79e1:	88 45 ec             	mov    %al,-0x14(%rbp)
    79e4:	b8 00 00 00 00       	mov    $0x0,%eax
    79e9:	e9 5f 04 00 00       	jmp    7e4d <jstring_chars_to_int+0x592>
    79ee:	83 7d d0 00          	cmpl   $0x0,-0x30(%rbp)
    79f2:	0f 85 b4 00 00 00    	jne    7aac <jstring_chars_to_int+0x1f1>
    79f8:	83 7d d4 01          	cmpl   $0x1,-0x2c(%rbp)
    79fc:	0f 84 aa 00 00 00    	je     7aac <jstring_chars_to_int+0x1f1>
    7a02:	48 8b 45 d8          	mov    -0x28(%rbp),%rax
    7a06:	48 89 c2             	mov    %rax,%rdx
    7a09:	48 c1 ea 03          	shr    $0x3,%rdx
    7a0d:	48 81 c2 00 80 ff 7f 	add    $0x7fff8000,%rdx
    7a14:	0f b6 12             	movzbl (%rdx),%edx
    7a17:	84 d2                	test   %dl,%dl
    7a19:	0f 95 c1             	setne  %cl
    7a1c:	48 89 c6             	mov    %rax,%rsi
    7a1f:	83 e6 07             	and    $0x7,%esi
    7a22:	40 38 d6             	cmp    %dl,%sil
    7a25:	0f 9d c2             	setge  %dl
    7a28:	21 ca                	and    %ecx,%edx
    7a2a:	84 d2                	test   %dl,%dl
    7a2c:	74 08                	je     7a36 <jstring_chars_to_int+0x17b>
    7a2e:	48 89 c7             	mov    %rax,%rdi
    7a31:	e8 5a c7 ff ff       	call   4190 <__asan_report_load1@plt>
    7a36:	48 8b 45 d8          	mov    -0x28(%rbp),%rax
    7a3a:	0f b6 00             	movzbl (%rax),%eax
    7a3d:	3c 30                	cmp    $0x30,%al
    7a3f:	75 6b                	jne    7aac <jstring_chars_to_int+0x1f1>
    7a41:	4c 8b 05 f8 16 01 00 	mov    0x116f8(%rip),%r8        # 19140 <jstring_log>
    7a48:	48 8d 15 51 bb 00 00 	lea    0xbb51(%rip),%rdx        # 135a0 <_IO_stdin_used+0x5a0>
    7a4f:	48 8d 35 aa bf 00 00 	lea    0xbfaa(%rip),%rsi        # 13a00 <_IO_stdin_used+0xa00>
    7a56:	48 8d 05 c3 bb 00 00 	lea    0xbbc3(%rip),%rax        # 13620 <_IO_stdin_used+0x620>
    7a5d:	b9 e1 02 00 00       	mov    $0x2e1,%ecx
    7a62:	48 89 c7             	mov    %rax,%rdi
    7a65:	b8 00 00 00 00       	mov    $0x0,%eax
    7a6a:	41 ff d0             	call   *%r8
    7a6d:	b9 00 00 00 00       	mov    $0x0,%ecx
    7a72:	48 89 c8             	mov    %rcx,%rax
    7a75:	48 89 c2             	mov    %rax,%rdx
    7a78:	48 c1 ea 03          	shr    $0x3,%rdx
    7a7c:	48 81 c2 00 80 ff 7f 	add    $0x7fff8000,%rdx
    7a83:	0f b6 12             	movzbl (%rdx),%edx
    7a86:	84 d2                	test   %dl,%dl
    7a88:	40 0f 95 c6          	setne  %sil
    7a8c:	48 89 c7             	mov    %rax,%rdi
    7a8f:	83 e7 07             	and    $0x7,%edi
    7a92:	40 38 d7             	cmp    %dl,%dil
    7a95:	0f 9d c2             	setge  %dl
    7a98:	21 f2                	and    %esi,%edx
    7a9a:	84 d2                	test   %dl,%dl
    7a9c:	74 08                	je     7aa6 <jstring_chars_to_int+0x1eb>
    7a9e:	48 89 c7             	mov    %rax,%rdi
    7aa1:	e8 ea c6 ff ff       	call   4190 <__asan_report_load1@plt>
    7aa6:	0f b6 01             	movzbl (%rcx),%eax
    7aa9:	88 45 ed             	mov    %al,-0x13(%rbp)
    7aac:	48 8b 45 d8          	mov    -0x28(%rbp),%rax
    7ab0:	48 89 c2             	mov    %rax,%rdx
    7ab3:	48 c1 ea 03          	shr    $0x3,%rdx
    7ab7:	48 81 c2 00 80 ff 7f 	add    $0x7fff8000,%rdx
    7abe:	0f b6 12             	movzbl (%rdx),%edx
    7ac1:	84 d2                	test   %dl,%dl
    7ac3:	0f 95 c1             	setne  %cl
    7ac6:	48 89 c6             	mov    %rax,%rsi
    7ac9:	83 e6 07             	and    $0x7,%esi
    7acc:	40 38 d6             	cmp    %dl,%sil
    7acf:	0f 9d c2             	setge  %dl
    7ad2:	21 ca                	and    %ecx,%edx
    7ad4:	84 d2                	test   %dl,%dl
    7ad6:	74 08                	je     7ae0 <jstring_chars_to_int+0x225>
    7ad8:	48 89 c7             	mov    %rax,%rdi
    7adb:	e8 b0 c6 ff ff       	call   4190 <__asan_report_load1@plt>
    7ae0:	48 8b 45 d8          	mov    -0x28(%rbp),%rax
    7ae4:	0f b6 00             	movzbl (%rax),%eax
    7ae7:	3c 2d                	cmp    $0x2d,%al
    7ae9:	75 0e                	jne    7af9 <jstring_chars_to_int+0x23e>
    7aeb:	c7 45 f4 01 00 00 00 	movl   $0x1,-0xc(%rbp)
    7af2:	c7 45 f0 01 00 00 00 	movl   $0x1,-0x10(%rbp)
    7af9:	83 7d d4 ff          	cmpl   $0xffffffff,-0x2c(%rbp)
    7afd:	0f 85 2b 03 00 00    	jne    7e2e <jstring_chars_to_int+0x573>
    7b03:	e9 6a 01 00 00       	jmp    7c72 <jstring_chars_to_int+0x3b7>
    7b08:	8b 45 f0             	mov    -0x10(%rbp),%eax
    7b0b:	48 63 d0             	movslq %eax,%rdx
    7b0e:	48 8b 45 d8          	mov    -0x28(%rbp),%rax
    7b12:	48 8d 0c 02          	lea    (%rdx,%rax,1),%rcx
    7b16:	48 89 c8             	mov    %rcx,%rax
    7b19:	48 89 c2             	mov    %rax,%rdx
    7b1c:	48 c1 ea 03          	shr    $0x3,%rdx
    7b20:	48 81 c2 00 80 ff 7f 	add    $0x7fff8000,%rdx
    7b27:	0f b6 12             	movzbl (%rdx),%edx
    7b2a:	84 d2                	test   %dl,%dl
    7b2c:	40 0f 95 c6          	setne  %sil
    7b30:	48 89 c7             	mov    %rax,%rdi
    7b33:	83 e7 07             	and    $0x7,%edi
    7b36:	40 38 d7             	cmp    %dl,%dil
    7b39:	0f 9d c2             	setge  %dl
    7b3c:	21 f2                	and    %esi,%edx
    7b3e:	84 d2                	test   %dl,%dl
    7b40:	74 08                	je     7b4a <jstring_chars_to_int+0x28f>
    7b42:	48 89 c7             	mov    %rax,%rdi
    7b45:	e8 46 c6 ff ff       	call   4190 <__asan_report_load1@plt>
    7b4a:	0f b6 01             	movzbl (%rcx),%eax
    7b4d:	3c 2f                	cmp    $0x2f,%al
    7b4f:	7e 49                	jle    7b9a <jstring_chars_to_int+0x2df>
    7b51:	8b 45 f0             	mov    -0x10(%rbp),%eax
    7b54:	48 63 d0             	movslq %eax,%rdx
    7b57:	48 8b 45 d8          	mov    -0x28(%rbp),%rax
    7b5b:	48 8d 0c 02          	lea    (%rdx,%rax,1),%rcx
    7b5f:	48 89 c8             	mov    %rcx,%rax
    7b62:	48 89 c2             	mov    %rax,%rdx
    7b65:	48 c1 ea 03          	shr    $0x3,%rdx
    7b69:	48 81 c2 00 80 ff 7f 	add    $0x7fff8000,%rdx
    7b70:	0f b6 12             	movzbl (%rdx),%edx
    7b73:	84 d2                	test   %dl,%dl
    7b75:	40 0f 95 c6          	setne  %sil
    7b79:	48 89 c7             	mov    %rax,%rdi
    7b7c:	83 e7 07             	and    $0x7,%edi
    7b7f:	40 38 d7             	cmp    %dl,%dil
    7b82:	0f 9d c2             	setge  %dl
    7b85:	21 f2                	and    %esi,%edx
    7b87:	84 d2                	test   %dl,%dl
    7b89:	74 08                	je     7b93 <jstring_chars_to_int+0x2d8>
    7b8b:	48 89 c7             	mov    %rax,%rdi
    7b8e:	e8 fd c5 ff ff       	call   4190 <__asan_report_load1@plt>
    7b93:	0f b6 01             	movzbl (%rcx),%eax
    7b96:	3c 39                	cmp    $0x39,%al
    7b98:	7e 6b                	jle    7c05 <jstring_chars_to_int+0x34a>
    7b9a:	4c 8b 05 9f 15 01 00 	mov    0x1159f(%rip),%r8        # 19140 <jstring_log>
    7ba1:	48 8d 15 f8 b9 00 00 	lea    0xb9f8(%rip),%rdx        # 135a0 <_IO_stdin_used+0x5a0>
    7ba8:	48 8d 35 d1 be 00 00 	lea    0xbed1(%rip),%rsi        # 13a80 <_IO_stdin_used+0xa80>
    7baf:	48 8d 05 6a ba 00 00 	lea    0xba6a(%rip),%rax        # 13620 <_IO_stdin_used+0x620>
    7bb6:	b9 f1 02 00 00       	mov    $0x2f1,%ecx
    7bbb:	48 89 c7             	mov    %rax,%rdi
    7bbe:	b8 00 00 00 00       	mov    $0x0,%eax
    7bc3:	41 ff d0             	call   *%r8
    7bc6:	b9 00 00 00 00       	mov    $0x0,%ecx
    7bcb:	48 89 c8             	mov    %rcx,%rax
    7bce:	48 89 c2             	mov    %rax,%rdx
    7bd1:	48 c1 ea 03          	shr    $0x3,%rdx
    7bd5:	48 81 c2 00 80 ff 7f 	add    $0x7fff8000,%rdx
    7bdc:	0f b6 12             	movzbl (%rdx),%edx
    7bdf:	84 d2                	test   %dl,%dl
    7be1:	40 0f 95 c6          	setne  %sil
    7be5:	48 89 c7             	mov    %rax,%rdi
    7be8:	83 e7 07             	and    $0x7,%edi
    7beb:	40 38 d7             	cmp    %dl,%dil
    7bee:	0f 9d c2             	setge  %dl
    7bf1:	21 f2                	and    %esi,%edx
    7bf3:	84 d2                	test   %dl,%dl
    7bf5:	74 08                	je     7bff <jstring_chars_to_int+0x344>
    7bf7:	48 89 c7             	mov    %rax,%rdi
    7bfa:	e8 91 c5 ff ff       	call   4190 <__asan_report_load1@plt>
    7bff:	0f b6 01             	movzbl (%rcx),%eax
    7c02:	88 45 ef             	mov    %al,-0x11(%rbp)
    7c05:	48 8b 55 f8          	mov    -0x8(%rbp),%rdx
    7c09:	48 89 d0             	mov    %rdx,%rax
    7c0c:	48 c1 e0 02          	shl    $0x2,%rax
    7c10:	48 01 d0             	add    %rdx,%rax
    7c13:	48 01 c0             	add    %rax,%rax
    7c16:	48 89 c6             	mov    %rax,%rsi
    7c19:	8b 45 f0             	mov    -0x10(%rbp),%eax
    7c1c:	48 63 d0             	movslq %eax,%rdx
    7c1f:	48 8b 45 d8          	mov    -0x28(%rbp),%rax
    7c23:	48 8d 0c 02          	lea    (%rdx,%rax,1),%rcx
    7c27:	48 89 c8             	mov    %rcx,%rax
    7c2a:	48 89 c2             	mov    %rax,%rdx
    7c2d:	48 c1 ea 03          	shr    $0x3,%rdx
    7c31:	48 81 c2 00 80 ff 7f 	add    $0x7fff8000,%rdx
    7c38:	0f b6 12             	movzbl (%rdx),%edx
    7c3b:	84 d2                	test   %dl,%dl
    7c3d:	40 0f 95 c7          	setne  %dil
    7c41:	49 89 c0             	mov    %rax,%r8
    7c44:	41 83 e0 07          	and    $0x7,%r8d
    7c48:	41 38 d0             	cmp    %dl,%r8b
    7c4b:	0f 9d c2             	setge  %dl
    7c4e:	21 fa                	and    %edi,%edx
    7c50:	84 d2                	test   %dl,%dl
    7c52:	74 08                	je     7c5c <jstring_chars_to_int+0x3a1>
    7c54:	48 89 c7             	mov    %rax,%rdi
    7c57:	e8 34 c5 ff ff       	call   4190 <__asan_report_load1@plt>
    7c5c:	0f b6 01             	movzbl (%rcx),%eax
    7c5f:	0f be c0             	movsbl %al,%eax
    7c62:	83 e8 30             	sub    $0x30,%eax
    7c65:	48 98                	cltq
    7c67:	48 01 f0             	add    %rsi,%rax
    7c6a:	48 89 45 f8          	mov    %rax,-0x8(%rbp)
    7c6e:	83 45 f0 01          	addl   $0x1,-0x10(%rbp)
    7c72:	8b 45 f0             	mov    -0x10(%rbp),%eax
    7c75:	48 63 d0             	movslq %eax,%rdx
    7c78:	48 8b 45 d8          	mov    -0x28(%rbp),%rax
    7c7c:	48 8d 0c 02          	lea    (%rdx,%rax,1),%rcx
    7c80:	48 89 c8             	mov    %rcx,%rax
    7c83:	48 89 c2             	mov    %rax,%rdx
    7c86:	48 c1 ea 03          	shr    $0x3,%rdx
    7c8a:	48 81 c2 00 80 ff 7f 	add    $0x7fff8000,%rdx
    7c91:	0f b6 12             	movzbl (%rdx),%edx
    7c94:	84 d2                	test   %dl,%dl
    7c96:	40 0f 95 c6          	setne  %sil
    7c9a:	48 89 c7             	mov    %rax,%rdi
    7c9d:	83 e7 07             	and    $0x7,%edi
    7ca0:	40 38 d7             	cmp    %dl,%dil
    7ca3:	0f 9d c2             	setge  %dl
    7ca6:	21 f2                	and    %esi,%edx
    7ca8:	84 d2                	test   %dl,%dl
    7caa:	74 08                	je     7cb4 <jstring_chars_to_int+0x3f9>
    7cac:	48 89 c7             	mov    %rax,%rdi
    7caf:	e8 dc c4 ff ff       	call   4190 <__asan_report_load1@plt>
    7cb4:	0f b6 01             	movzbl (%rcx),%eax
    7cb7:	84 c0                	test   %al,%al
    7cb9:	0f 85 49 fe ff ff    	jne    7b08 <jstring_chars_to_int+0x24d>
    7cbf:	e9 76 01 00 00       	jmp    7e3a <jstring_chars_to_int+0x57f>
    7cc4:	8b 45 f0             	mov    -0x10(%rbp),%eax
    7cc7:	48 63 d0             	movslq %eax,%rdx
    7cca:	48 8b 45 d8          	mov    -0x28(%rbp),%rax
    7cce:	48 8d 0c 02          	lea    (%rdx,%rax,1),%rcx
    7cd2:	48 89 c8             	mov    %rcx,%rax
    7cd5:	48 89 c2             	mov    %rax,%rdx
    7cd8:	48 c1 ea 03          	shr    $0x3,%rdx
    7cdc:	48 81 c2 00 80 ff 7f 	add    $0x7fff8000,%rdx
    7ce3:	0f b6 12             	movzbl (%rdx),%edx
    7ce6:	84 d2                	test   %dl,%dl
    7ce8:	40 0f 95 c6          	setne  %sil
    7cec:	48 89 c7             	mov    %rax,%rdi
    7cef:	83 e7 07             	and    $0x7,%edi
    7cf2:	40 38 d7             	cmp    %dl,%dil
    7cf5:	0f 9d c2             	setge  %dl
    7cf8:	21 f2                	and    %esi,%edx
    7cfa:	84 d2                	test   %dl,%dl
    7cfc:	74 08                	je     7d06 <jstring_chars_to_int+0x44b>
    7cfe:	48 89 c7             	mov    %rax,%rdi
    7d01:	e8 8a c4 ff ff       	call   4190 <__asan_report_load1@plt>
    7d06:	0f b6 01             	movzbl (%rcx),%eax
    7d09:	3c 2f                	cmp    $0x2f,%al
    7d0b:	7e 49                	jle    7d56 <jstring_chars_to_int+0x49b>
    7d0d:	8b 45 f0             	mov    -0x10(%rbp),%eax
    7d10:	48 63 d0             	movslq %eax,%rdx
    7d13:	48 8b 45 d8          	mov    -0x28(%rbp),%rax
    7d17:	48 8d 0c 02          	lea    (%rdx,%rax,1),%rcx
    7d1b:	48 89 c8             	mov    %rcx,%rax
    7d1e:	48 89 c2             	mov    %rax,%rdx
    7d21:	48 c1 ea 03          	shr    $0x3,%rdx
    7d25:	48 81 c2 00 80 ff 7f 	add    $0x7fff8000,%rdx
    7d2c:	0f b6 12             	movzbl (%rdx),%edx
    7d2f:	84 d2                	test   %dl,%dl
    7d31:	40 0f 95 c6          	setne  %sil
    7d35:	48 89 c7             	mov    %rax,%rdi
    7d38:	83 e7 07             	and    $0x7,%edi
    7d3b:	40 38 d7             	cmp    %dl,%dil
    7d3e:	0f 9d c2             	setge  %dl
    7d41:	21 f2                	and    %esi,%edx
    7d43:	84 d2                	test   %dl,%dl
    7d45:	74 08                	je     7d4f <jstring_chars_to_int+0x494>
    7d47:	48 89 c7             	mov    %rax,%rdi
    7d4a:	e8 41 c4 ff ff       	call   4190 <__asan_report_load1@plt>
    7d4f:	0f b6 01             	movzbl (%rcx),%eax
    7d52:	3c 39                	cmp    $0x39,%al
    7d54:	7e 6b                	jle    7dc1 <jstring_chars_to_int+0x506>
    7d56:	4c 8b 05 e3 13 01 00 	mov    0x113e3(%rip),%r8        # 19140 <jstring_log>
    7d5d:	48 8d 15 3c b8 00 00 	lea    0xb83c(%rip),%rdx        # 135a0 <_IO_stdin_used+0x5a0>
    7d64:	48 8d 35 15 bd 00 00 	lea    0xbd15(%rip),%rsi        # 13a80 <_IO_stdin_used+0xa80>
    7d6b:	48 8d 05 ae b8 00 00 	lea    0xb8ae(%rip),%rax        # 13620 <_IO_stdin_used+0x620>
    7d72:	b9 fc 02 00 00       	mov    $0x2fc,%ecx
    7d77:	48 89 c7             	mov    %rax,%rdi
    7d7a:	b8 00 00 00 00       	mov    $0x0,%eax
    7d7f:	41 ff d0             	call   *%r8
    7d82:	b9 00 00 00 00       	mov    $0x0,%ecx
    7d87:	48 89 c8             	mov    %rcx,%rax
    7d8a:	48 89 c2             	mov    %rax,%rdx
    7d8d:	48 c1 ea 03          	shr    $0x3,%rdx
    7d91:	48 81 c2 00 80 ff 7f 	add    $0x7fff8000,%rdx
    7d98:	0f b6 12             	movzbl (%rdx),%edx
    7d9b:	84 d2                	test   %dl,%dl
    7d9d:	40 0f 95 c6          	setne  %sil
    7da1:	48 89 c7             	mov    %rax,%rdi
    7da4:	83 e7 07             	and    $0x7,%edi
    7da7:	40 38 d7             	cmp    %dl,%dil
    7daa:	0f 9d c2             	setge  %dl
    7dad:	21 f2                	and    %esi,%edx
    7daf:	84 d2                	test   %dl,%dl
    7db1:	74 08                	je     7dbb <jstring_chars_to_int+0x500>
    7db3:	48 89 c7             	mov    %rax,%rdi
    7db6:	e8 d5 c3 ff ff       	call   4190 <__asan_report_load1@plt>
    7dbb:	0f b6 01             	movzbl (%rcx),%eax
    7dbe:	88 45 ee             	mov    %al,-0x12(%rbp)
    7dc1:	48 8b 55 f8          	mov    -0x8(%rbp),%rdx
    7dc5:	48 89 d0             	mov    %rdx,%rax
    7dc8:	48 c1 e0 02          	shl    $0x2,%rax
    7dcc:	48 01 d0             	add    %rdx,%rax
    7dcf:	48 01 c0             	add    %rax,%rax
    7dd2:	48 89 c6             	mov    %rax,%rsi
    7dd5:	8b 45 f0             	mov    -0x10(%rbp),%eax
    7dd8:	48 63 d0             	movslq %eax,%rdx
    7ddb:	48 8b 45 d8          	mov    -0x28(%rbp),%rax
    7ddf:	48 8d 0c 02          	lea    (%rdx,%rax,1),%rcx
    7de3:	48 89 c8             	mov    %rcx,%rax
    7de6:	48 89 c2             	mov    %rax,%rdx
    7de9:	48 c1 ea 03          	shr    $0x3,%rdx
    7ded:	48 81 c2 00 80 ff 7f 	add    $0x7fff8000,%rdx
    7df4:	0f b6 12             	movzbl (%rdx),%edx
    7df7:	84 d2                	test   %dl,%dl
    7df9:	40 0f 95 c7          	setne  %dil
    7dfd:	49 89 c0             	mov    %rax,%r8
    7e00:	41 83 e0 07          	and    $0x7,%r8d
    7e04:	41 38 d0             	cmp    %dl,%r8b
    7e07:	0f 9d c2             	setge  %dl
    7e0a:	21 fa                	and    %edi,%edx
    7e0c:	84 d2                	test   %dl,%dl
    7e0e:	74 08                	je     7e18 <jstring_chars_to_int+0x55d>
    7e10:	48 89 c7             	mov    %rax,%rdi
    7e13:	e8 78 c3 ff ff       	call   4190 <__asan_report_load1@plt>
    7e18:	0f b6 01             	movzbl (%rcx),%eax
    7e1b:	0f be c0             	movsbl %al,%eax
    7e1e:	83 e8 30             	sub    $0x30,%eax
    7e21:	48 98                	cltq
    7e23:	48 01 f0             	add    %rsi,%rax
    7e26:	48 89 45 f8          	mov    %rax,-0x8(%rbp)
    7e2a:	83 45 f0 01          	addl   $0x1,-0x10(%rbp)
    7e2e:	8b 45 f0             	mov    -0x10(%rbp),%eax
    7e31:	3b 45 d4             	cmp    -0x2c(%rbp),%eax
    7e34:	0f 8c 8a fe ff ff    	jl     7cc4 <jstring_chars_to_int+0x409>
    7e3a:	83 7d f4 00          	cmpl   $0x0,-0xc(%rbp)
    7e3e:	74 09                	je     7e49 <jstring_chars_to_int+0x58e>
    7e40:	48 8b 45 f8          	mov    -0x8(%rbp),%rax
    7e44:	48 f7 d8             	neg    %rax
    7e47:	eb 04                	jmp    7e4d <jstring_chars_to_int+0x592>
    7e49:	48 8b 45 f8          	mov    -0x8(%rbp),%rax
    7e4d:	c9                   	leave
    7e4e:	c3                   	ret

0000000000007e4f <jstring_chars_to_double>:
    7e4f:	55                   	push   %rbp
    7e50:	48 89 e5             	mov    %rsp,%rbp
    7e53:	48 83 ec 40          	sub    $0x40,%rsp
    7e57:	48 89 7d c8          	mov    %rdi,-0x38(%rbp)
    7e5b:	89 75 c4             	mov    %esi,-0x3c(%rbp)
    7e5e:	c7 45 d8 ff ff ff ff 	movl   $0xffffffff,-0x28(%rbp)
    7e65:	c7 45 dc 00 00 00 00 	movl   $0x0,-0x24(%rbp)
    7e6c:	eb 55                	jmp    7ec3 <jstring_chars_to_double+0x74>
    7e6e:	8b 45 dc             	mov    -0x24(%rbp),%eax
    7e71:	48 63 d0             	movslq %eax,%rdx
    7e74:	48 8b 45 c8          	mov    -0x38(%rbp),%rax
    7e78:	48 8d 0c 02          	lea    (%rdx,%rax,1),%rcx
    7e7c:	48 89 c8             	mov    %rcx,%rax
    7e7f:	48 89 c2             	mov    %rax,%rdx
    7e82:	48 c1 ea 03          	shr    $0x3,%rdx
    7e86:	48 81 c2 00 80 ff 7f 	add    $0x7fff8000,%rdx
    7e8d:	0f b6 12             	movzbl (%rdx),%edx
    7e90:	84 d2                	test   %dl,%dl
    7e92:	40 0f 95 c6          	setne  %sil
    7e96:	48 89 c7             	mov    %rax,%rdi
    7e99:	83 e7 07             	and    $0x7,%edi
    7e9c:	40 38 d7             	cmp    %dl,%dil
    7e9f:	0f 9d c2             	setge  %dl
    7ea2:	21 f2                	and    %esi,%edx
    7ea4:	84 d2                	test   %dl,%dl
    7ea6:	74 08                	je     7eb0 <jstring_chars_to_double+0x61>
    7ea8:	48 89 c7             	mov    %rax,%rdi
    7eab:	e8 e0 c2 ff ff       	call   4190 <__asan_report_load1@plt>
    7eb0:	0f b6 01             	movzbl (%rcx),%eax
    7eb3:	3c 2e                	cmp    $0x2e,%al
    7eb5:	75 08                	jne    7ebf <jstring_chars_to_double+0x70>
    7eb7:	8b 45 dc             	mov    -0x24(%rbp),%eax
    7eba:	89 45 d8             	mov    %eax,-0x28(%rbp)
    7ebd:	eb 0c                	jmp    7ecb <jstring_chars_to_double+0x7c>
    7ebf:	83 45 dc 01          	addl   $0x1,-0x24(%rbp)
    7ec3:	8b 45 dc             	mov    -0x24(%rbp),%eax
    7ec6:	3b 45 c4             	cmp    -0x3c(%rbp),%eax
    7ec9:	7c a3                	jl     7e6e <jstring_chars_to_double+0x1f>
    7ecb:	83 7d d8 ff          	cmpl   $0xffffffff,-0x28(%rbp)
    7ecf:	75 24                	jne    7ef5 <jstring_chars_to_double+0xa6>
    7ed1:	8b 4d c4             	mov    -0x3c(%rbp),%ecx
    7ed4:	48 8b 45 c8          	mov    -0x38(%rbp),%rax
    7ed8:	ba 00 00 00 00       	mov    $0x0,%edx
    7edd:	89 ce                	mov    %ecx,%esi
    7edf:	48 89 c7             	mov    %rax,%rdi
    7ee2:	e8 d4 f9 ff ff       	call   78bb <jstring_chars_to_int>
    7ee7:	66 0f ef c0          	pxor   %xmm0,%xmm0
    7eeb:	f2 48 0f 2a c0       	cvtsi2sd %rax,%xmm0
    7ef0:	e9 cb 00 00 00       	jmp    7fc0 <jstring_chars_to_double+0x171>
    7ef5:	8b 45 c4             	mov    -0x3c(%rbp),%eax
    7ef8:	2b 45 d8             	sub    -0x28(%rbp),%eax
    7efb:	83 e8 01             	sub    $0x1,%eax
    7efe:	89 45 e4             	mov    %eax,-0x1c(%rbp)
    7f01:	8b 4d d8             	mov    -0x28(%rbp),%ecx
    7f04:	48 8b 45 c8          	mov    -0x38(%rbp),%rax
    7f08:	ba 00 00 00 00       	mov    $0x0,%edx
    7f0d:	89 ce                	mov    %ecx,%esi
    7f0f:	48 89 c7             	mov    %rax,%rdi
    7f12:	e8 a4 f9 ff ff       	call   78bb <jstring_chars_to_int>
    7f17:	66 0f ef c0          	pxor   %xmm0,%xmm0
    7f1b:	f2 48 0f 2a c0       	cvtsi2sd %rax,%xmm0
    7f20:	f2 0f 11 45 f8       	movsd  %xmm0,-0x8(%rbp)
    7f25:	8b 45 d8             	mov    -0x28(%rbp),%eax
    7f28:	48 98                	cltq
    7f2a:	48 8d 50 01          	lea    0x1(%rax),%rdx
    7f2e:	48 8b 45 c8          	mov    -0x38(%rbp),%rax
    7f32:	48 8d 0c 02          	lea    (%rdx,%rax,1),%rcx
    7f36:	8b 45 e4             	mov    -0x1c(%rbp),%eax
    7f39:	ba 01 00 00 00       	mov    $0x1,%edx
    7f3e:	89 c6                	mov    %eax,%esi
    7f40:	48 89 cf             	mov    %rcx,%rdi
    7f43:	e8 73 f9 ff ff       	call   78bb <jstring_chars_to_int>
    7f48:	66 0f ef c0          	pxor   %xmm0,%xmm0
    7f4c:	f2 48 0f 2a c0       	cvtsi2sd %rax,%xmm0
    7f51:	f2 0f 11 45 f0       	movsd  %xmm0,-0x10(%rbp)
    7f56:	f2 0f 10 45 e8       	movsd  -0x18(%rbp),%xmm0
    7f5b:	f2 0f 58 45 f8       	addsd  -0x8(%rbp),%xmm0
    7f60:	f2 0f 11 45 e8       	movsd  %xmm0,-0x18(%rbp)
    7f65:	c7 45 e0 00 00 00 00 	movl   $0x0,-0x20(%rbp)
    7f6c:	eb 1a                	jmp    7f88 <jstring_chars_to_double+0x139>
    7f6e:	f2 0f 10 45 f0       	movsd  -0x10(%rbp),%xmm0
    7f73:	f2 0f 10 0d 15 e7 00 	movsd  0xe715(%rip),%xmm1        # 16690 <__func__.0+0x430>
    7f7a:	00 
    7f7b:	f2 0f 5e c1          	divsd  %xmm1,%xmm0
    7f7f:	f2 0f 11 45 f0       	movsd  %xmm0,-0x10(%rbp)
    7f84:	83 45 e0 01          	addl   $0x1,-0x20(%rbp)
    7f88:	8b 45 e4             	mov    -0x1c(%rbp),%eax
    7f8b:	39 45 e0             	cmp    %eax,-0x20(%rbp)
    7f8e:	72 de                	jb     7f6e <jstring_chars_to_double+0x11f>
    7f90:	66 0f ef c0          	pxor   %xmm0,%xmm0
    7f94:	66 0f 2f 45 e8       	comisd -0x18(%rbp),%xmm0
    7f99:	76 11                	jbe    7fac <jstring_chars_to_double+0x15d>
    7f9b:	f2 0f 10 45 e8       	movsd  -0x18(%rbp),%xmm0
    7fa0:	f2 0f 5c 45 f0       	subsd  -0x10(%rbp),%xmm0
    7fa5:	f2 0f 11 45 e8       	movsd  %xmm0,-0x18(%rbp)
    7faa:	eb 0f                	jmp    7fbb <jstring_chars_to_double+0x16c>
    7fac:	f2 0f 10 45 e8       	movsd  -0x18(%rbp),%xmm0
    7fb1:	f2 0f 58 45 f0       	addsd  -0x10(%rbp),%xmm0
    7fb6:	f2 0f 11 45 e8       	movsd  %xmm0,-0x18(%rbp)
    7fbb:	f2 0f 10 45 e8       	movsd  -0x18(%rbp),%xmm0
    7fc0:	c9                   	leave
    7fc1:	c3                   	ret

0000000000007fc2 <jstring_jstring_to_int>:
    7fc2:	55                   	push   %rbp
    7fc3:	48 89 e5             	mov    %rsp,%rbp
    7fc6:	48 89 f8             	mov    %rdi,%rax
    7fc9:	48 89 f1             	mov    %rsi,%rcx
    7fcc:	48 89 c0             	mov    %rax,%rax
    7fcf:	ba 00 00 00 00       	mov    $0x0,%edx
    7fd4:	48 89 ca             	mov    %rcx,%rdx
    7fd7:	48 89 45 f0          	mov    %rax,-0x10(%rbp)
    7fdb:	48 89 55 f8          	mov    %rdx,-0x8(%rbp)
    7fdf:	b8 00 00 00 00       	mov    $0x0,%eax
    7fe4:	5d                   	pop    %rbp
    7fe5:	c3                   	ret

0000000000007fe6 <jstring_jstring_to_double>:
    7fe6:	55                   	push   %rbp
    7fe7:	48 89 e5             	mov    %rsp,%rbp
    7fea:	48 89 f8             	mov    %rdi,%rax
    7fed:	48 89 f1             	mov    %rsi,%rcx
    7ff0:	48 89 c0             	mov    %rax,%rax
    7ff3:	ba 00 00 00 00       	mov    $0x0,%edx
    7ff8:	48 89 ca             	mov    %rcx,%rdx
    7ffb:	48 89 45 f0          	mov    %rax,-0x10(%rbp)
    7fff:	48 89 55 f8          	mov    %rdx,-0x8(%rbp)
    8003:	66 0f ef c0          	pxor   %xmm0,%xmm0
    8007:	5d                   	pop    %rbp
    8008:	c3                   	ret

0000000000008009 <jstring_index_of_raw>:
    8009:	55                   	push   %rbp
    800a:	48 89 e5             	mov    %rsp,%rbp
    800d:	41 56                	push   %r14
    800f:	41 55                	push   %r13
    8011:	41 54                	push   %r12
    8013:	53                   	push   %rbx
    8014:	48 81 ec 90 00 00 00 	sub    $0x90,%rsp
    801b:	48 89 f8             	mov    %rdi,%rax
    801e:	48 89 c1             	mov    %rax,%rcx
    8021:	bb 00 00 00 00       	mov    $0x0,%ebx
    8026:	48 89 f3             	mov    %rsi,%rbx
    8029:	48 89 8d 60 ff ff ff 	mov    %rcx,-0xa0(%rbp)
    8030:	48 89 9d 68 ff ff ff 	mov    %rbx,-0x98(%rbp)
    8037:	48 89 95 58 ff ff ff 	mov    %rdx,-0xa8(%rbp)
    803e:	48 8d 5d 80          	lea    -0x80(%rbp),%rbx
    8042:	49 89 de             	mov    %rbx,%r14
    8045:	83 3d 14 32 01 00 00 	cmpl   $0x0,0x13214(%rip)        # 1b260 <__asan_option_detect_stack_use_after_return@@Base>
    804c:	74 12                	je     8060 <jstring_index_of_raw+0x57>
    804e:	bf 40 00 00 00       	mov    $0x40,%edi
    8053:	e8 48 c0 ff ff       	call   40a0 <__asan_stack_malloc_0@plt>
    8058:	48 85 c0             	test   %rax,%rax
    805b:	74 03                	je     8060 <jstring_index_of_raw+0x57>
    805d:	48 89 c3             	mov    %rax,%rbx
    8060:	48 8d 43 60          	lea    0x60(%rbx),%rax
    8064:	49 89 c4             	mov    %rax,%r12
    8067:	48 c7 03 b3 8a b5 41 	movq   $0x41b58ab3,(%rbx)
    806e:	48 8d 05 4b ba 00 00 	lea    0xba4b(%rip),%rax        # 13ac0 <_IO_stdin_used+0xac0>
    8075:	48 89 43 08          	mov    %rax,0x8(%rbx)
    8079:	48 8d 05 89 ff ff ff 	lea    -0x77(%rip),%rax        # 8009 <jstring_index_of_raw>
    8080:	48 89 43 10          	mov    %rax,0x10(%rbx)
    8084:	49 89 dd             	mov    %rbx,%r13
    8087:	49 c1 ed 03          	shr    $0x3,%r13
    808b:	41 c7 85 00 80 ff 7f 	movl   $0xf1f1f1f1,0x7fff8000(%r13)
    8092:	f1 f1 f1 f1 
    8096:	41 c7 85 04 80 ff 7f 	movl   $0xf3f30000,0x7fff8004(%r13)
    809d:	00 00 f3 f3 
    80a1:	64 48 8b 04 25 28 00 	mov    %fs:0x28,%rax
    80a8:	00 00 
    80aa:	48 89 45 d8          	mov    %rax,-0x28(%rbp)
    80ae:	31 c0                	xor    %eax,%eax
    80b0:	48 8b 85 60 ff ff ff 	mov    -0xa0(%rbp),%rax
    80b7:	48 8b 95 68 ff ff ff 	mov    -0x98(%rbp),%rdx
    80be:	49 89 44 24 c0       	mov    %rax,-0x40(%r12)
    80c3:	49 89 54 24 c8       	mov    %rdx,-0x38(%r12)
    80c8:	48 8b 85 58 ff ff ff 	mov    -0xa8(%rbp),%rax
    80cf:	48 89 c7             	mov    %rax,%rdi
    80d2:	e8 54 ca ff ff       	call   4b2b <jstring_length>
    80d7:	89 85 7c ff ff ff    	mov    %eax,-0x84(%rbp)
    80dd:	c7 85 74 ff ff ff 00 	movl   $0x0,-0x8c(%rbp)
    80e4:	00 00 00 
    80e7:	e9 0f 01 00 00       	jmp    81fb <jstring_index_of_raw+0x1f2>
    80ec:	c7 85 78 ff ff ff 00 	movl   $0x0,-0x88(%rbp)
    80f3:	00 00 00 
    80f6:	e9 e4 00 00 00       	jmp    81df <jstring_index_of_raw+0x1d6>
    80fb:	49 8d 44 24 c0       	lea    -0x40(%r12),%rax
    8100:	48 83 c0 08          	add    $0x8,%rax
    8104:	48 89 c2             	mov    %rax,%rdx
    8107:	48 c1 ea 03          	shr    $0x3,%rdx
    810b:	48 81 c2 00 80 ff 7f 	add    $0x7fff8000,%rdx
    8112:	0f b6 12             	movzbl (%rdx),%edx
    8115:	84 d2                	test   %dl,%dl
    8117:	74 08                	je     8121 <jstring_index_of_raw+0x118>
    8119:	48 89 c7             	mov    %rax,%rdi
    811c:	e8 9f c0 ff ff       	call   41c0 <__asan_report_load8@plt>
    8121:	49 8b 44 24 c8       	mov    -0x38(%r12),%rax
    8126:	8b 8d 78 ff ff ff    	mov    -0x88(%rbp),%ecx
    812c:	8b 95 74 ff ff ff    	mov    -0x8c(%rbp),%edx
    8132:	01 ca                	add    %ecx,%edx
    8134:	89 d2                	mov    %edx,%edx
    8136:	48 8d 0c 10          	lea    (%rax,%rdx,1),%rcx
    813a:	48 89 c8             	mov    %rcx,%rax
    813d:	48 89 c2             	mov    %rax,%rdx
    8140:	48 c1 ea 03          	shr    $0x3,%rdx
    8144:	48 81 c2 00 80 ff 7f 	add    $0x7fff8000,%rdx
    814b:	0f b6 12             	movzbl (%rdx),%edx
    814e:	84 d2                	test   %dl,%dl
    8150:	40 0f 95 c6          	setne  %sil
    8154:	48 89 c7             	mov    %rax,%rdi
    8157:	83 e7 07             	and    $0x7,%edi
    815a:	40 38 d7             	cmp    %dl,%dil
    815d:	0f 9d c2             	setge  %dl
    8160:	21 f2                	and    %esi,%edx
    8162:	84 d2                	test   %dl,%dl
    8164:	74 08                	je     816e <jstring_index_of_raw+0x165>
    8166:	48 89 c7             	mov    %rax,%rdi
    8169:	e8 22 c0 ff ff       	call   4190 <__asan_report_load1@plt>
    816e:	0f b6 31             	movzbl (%rcx),%esi
    8171:	8b 95 78 ff ff ff    	mov    -0x88(%rbp),%edx
    8177:	48 8b 85 58 ff ff ff 	mov    -0xa8(%rbp),%rax
    817e:	48 8d 0c 02          	lea    (%rdx,%rax,1),%rcx
    8182:	48 89 c8             	mov    %rcx,%rax
    8185:	48 89 c2             	mov    %rax,%rdx
    8188:	48 c1 ea 03          	shr    $0x3,%rdx
    818c:	48 81 c2 00 80 ff 7f 	add    $0x7fff8000,%rdx
    8193:	0f b6 12             	movzbl (%rdx),%edx
    8196:	84 d2                	test   %dl,%dl
    8198:	40 0f 95 c7          	setne  %dil
    819c:	49 89 c0             	mov    %rax,%r8
    819f:	41 83 e0 07          	and    $0x7,%r8d
    81a3:	41 38 d0             	cmp    %dl,%r8b
    81a6:	0f 9d c2             	setge  %dl
    81a9:	21 fa                	and    %edi,%edx
    81ab:	84 d2                	test   %dl,%dl
    81ad:	74 08                	je     81b7 <jstring_index_of_raw+0x1ae>
    81af:	48 89 c7             	mov    %rax,%rdi
    81b2:	e8 d9 bf ff ff       	call   4190 <__asan_report_load1@plt>
    81b7:	0f b6 01             	movzbl (%rcx),%eax
    81ba:	40 38 c6             	cmp    %al,%sil
    81bd:	75 34                	jne    81f3 <jstring_index_of_raw+0x1ea>
    81bf:	8b 85 7c ff ff ff    	mov    -0x84(%rbp),%eax
    81c5:	83 e8 01             	sub    $0x1,%eax
    81c8:	39 85 78 ff ff ff    	cmp    %eax,-0x88(%rbp)
    81ce:	75 08                	jne    81d8 <jstring_index_of_raw+0x1cf>
    81d0:	8b 85 74 ff ff ff    	mov    -0x8c(%rbp),%eax
    81d6:	eb 6f                	jmp    8247 <jstring_index_of_raw+0x23e>
    81d8:	83 85 78 ff ff ff 01 	addl   $0x1,-0x88(%rbp)
    81df:	8b 85 78 ff ff ff    	mov    -0x88(%rbp),%eax
    81e5:	3b 85 7c ff ff ff    	cmp    -0x84(%rbp),%eax
    81eb:	0f 82 0a ff ff ff    	jb     80fb <jstring_index_of_raw+0xf2>
    81f1:	eb 01                	jmp    81f4 <jstring_index_of_raw+0x1eb>
    81f3:	90                   	nop
    81f4:	83 85 74 ff ff ff 01 	addl   $0x1,-0x8c(%rbp)
    81fb:	49 8d 44 24 c0       	lea    -0x40(%r12),%rax
    8200:	48 89 c2             	mov    %rax,%rdx
    8203:	48 89 d0             	mov    %rdx,%rax
    8206:	48 c1 e8 03          	shr    $0x3,%rax
    820a:	48 05 00 80 ff 7f    	add    $0x7fff8000,%rax
    8210:	0f b6 00             	movzbl (%rax),%eax
    8213:	84 c0                	test   %al,%al
    8215:	0f 95 c1             	setne  %cl
    8218:	3c 03                	cmp    $0x3,%al
    821a:	0f 9e c0             	setle  %al
    821d:	21 c8                	and    %ecx,%eax
    821f:	84 c0                	test   %al,%al
    8221:	74 08                	je     822b <jstring_index_of_raw+0x222>
    8223:	48 89 d7             	mov    %rdx,%rdi
    8226:	e8 c5 be ff ff       	call   40f0 <__asan_report_load4@plt>
    822b:	41 8b 44 24 c0       	mov    -0x40(%r12),%eax
    8230:	2b 85 7c ff ff ff    	sub    -0x84(%rbp),%eax
    8236:	3b 85 74 ff ff ff    	cmp    -0x8c(%rbp),%eax
    823c:	0f 83 aa fe ff ff    	jae    80ec <jstring_index_of_raw+0xe3>
    8242:	b8 ff ff ff ff       	mov    $0xffffffff,%eax
    8247:	89 c2                	mov    %eax,%edx
    8249:	49 39 de             	cmp    %rbx,%r14
    824c:	74 21                	je     826f <jstring_index_of_raw+0x266>
    824e:	48 c7 03 0e 36 e0 45 	movq   $0x45e0360e,(%rbx)
    8255:	48 b8 f5 f5 f5 f5 f5 	movabs $0xf5f5f5f5f5f5f5f5,%rax
    825c:	f5 f5 f5 
    825f:	49 89 85 00 80 ff 7f 	mov    %rax,0x7fff8000(%r13)
    8266:	48 8b 43 38          	mov    0x38(%rbx),%rax
    826a:	c6 00 00             	movb   $0x0,(%rax)
    826d:	eb 0b                	jmp    827a <jstring_index_of_raw+0x271>
    826f:	49 c7 85 00 80 ff 7f 	movq   $0x0,0x7fff8000(%r13)
    8276:	00 00 00 00 
    827a:	48 8b 45 d8          	mov    -0x28(%rbp),%rax
    827e:	64 48 2b 04 25 28 00 	sub    %fs:0x28,%rax
    8285:	00 00 
    8287:	74 05                	je     828e <jstring_index_of_raw+0x285>
    8289:	e8 d2 be ff ff       	call   4160 <__stack_chk_fail@plt>
    828e:	89 d0                	mov    %edx,%eax
    8290:	48 81 c4 90 00 00 00 	add    $0x90,%rsp
    8297:	5b                   	pop    %rbx
    8298:	41 5c                	pop    %r12
    829a:	41 5d                	pop    %r13
    829c:	41 5e                	pop    %r14
    829e:	5d                   	pop    %rbp
    829f:	c3                   	ret

00000000000082a0 <jstring_index_of_jstring>:
    82a0:	55                   	push   %rbp
    82a1:	48 89 e5             	mov    %rsp,%rbp
    82a4:	41 54                	push   %r12
    82a6:	53                   	push   %rbx
    82a7:	48 81 ec b0 00 00 00 	sub    $0xb0,%rsp
    82ae:	48 89 f8             	mov    %rdi,%rax
    82b1:	49 89 f0             	mov    %rsi,%r8
    82b4:	48 89 c6             	mov    %rax,%rsi
    82b7:	bf 00 00 00 00       	mov    $0x0,%edi
    82bc:	4c 89 c7             	mov    %r8,%rdi
    82bf:	48 89 b5 50 ff ff ff 	mov    %rsi,-0xb0(%rbp)
    82c6:	48 89 bd 58 ff ff ff 	mov    %rdi,-0xa8(%rbp)
    82cd:	48 89 95 40 ff ff ff 	mov    %rdx,-0xc0(%rbp)
    82d4:	48 89 8d 48 ff ff ff 	mov    %rcx,-0xb8(%rbp)
    82db:	48 8d 9d 70 ff ff ff 	lea    -0x90(%rbp),%rbx
    82e2:	49 89 dc             	mov    %rbx,%r12
    82e5:	83 3d 74 2f 01 00 00 	cmpl   $0x0,0x12f74(%rip)        # 1b260 <__asan_option_detect_stack_use_after_return@@Base>
    82ec:	74 12                	je     8300 <jstring_index_of_jstring+0x60>
    82ee:	bf 60 00 00 00       	mov    $0x60,%edi
    82f3:	e8 e8 bd ff ff       	call   40e0 <__asan_stack_malloc_1@plt>
    82f8:	48 85 c0             	test   %rax,%rax
